(lp0
(lp1
(lp2
F37.42616617578954
aF-60.06989739381064
aF-358.8791460902513
aF4.272547158624459
aF2.7646015351590183
aF9723.651896068106
aF3.4490875858976526
aF16.94194193374086
aF1.7576184568073292
aF2.0465152757473093
aa(lp3
F38.42616617578954
aF-60.06989739381064
aF-358.8791460902513
aF4.272547158624459
aF2.7646015351590183
aF9723.651896068106
aF3.4490875858976526
aF16.94194193374086
aF1.7576184568073292
aF2.0465152757473093
aa(lp4
F39.42616617578954
aF-60.06989739381064
aF-358.8791460902513
aF4.272547158624459
aF2.7646015351590183
aF9723.651896068106
aF3.4490875858976526
aF16.94194193374086
aF1.7576184568073292
aF2.0465152757473093
aa(lp5
F40.42616617578954
aF-60.06989739381064
aF-358.8791460902513
aF4.272547158624459
aF2.7646015351590183
aF9723.651896068106
aF3.4490875858976526
aF16.94194193374086
aF1.7576184568073292
aF2.0465152757473093
aa(lp6
F41.42616617578954
aF-60.06989739381064
aF-358.8791460902513
aF4.272547158624459
aF2.7646015351590183
aF9723.651896068106
aF3.4490875858976526
aF16.94194193374086
aF1.7576184568073292
aF2.0465152757473093
aa(lp7
F42.42616617578954
aF-60.06989739381064
aF-358.8791460902513
aF4.272547158624459
aF2.7646015351590183
aF9723.651896068106
aF3.4490875858976526
aF16.94194193374086
aF1.7576184568073292
aF2.0465152757473093
aa(lp8
F43.42616617578954
aF-60.06989739381064
aF-358.8791460902513
aF4.272547158624459
aF2.7646015351590183
aF9723.651896068106
aF3.4490875858976526
aF16.94194193374086
aF1.7576184568073292
aF2.0465152757473093
aa(lp9
F44.42616617578954
aF-60.06989739381064
aF-358.8791460902513
aF4.272547158624459
aF2.7646015351590183
aF9723.651896068106
aF3.4490875858976526
aF16.94194193374086
aF1.7576184568073292
aF2.0465152757473093
aa(lp10
F45.42616617578954
aF-60.06989739381064
aF-358.8791460902513
aF4.272547158624459
aF2.7646015351590183
aF9723.651896068106
aF3.4490875858976526
aF16.94194193374086
aF1.7576184568073292
aF2.0465152757473093
aa(lp11
F46.42616617578954
aF-60.06989739381064
aF-358.8791460902513
aF4.272547158624459
aF2.7646015351590183
aF9723.651896068106
aF3.4490875858976526
aF16.94194193374086
aF1.7576184568073292
aF2.0465152757473093
aa(lp12
F47.42616617578954
aF-60.06989739381064
aF-358.8791460902513
aF4.272547158624459
aF2.7646015351590183
aF9723.651896068106
aF3.4490875858976526
aF16.94194193374086
aF1.7576184568073292
aF2.0465152757473093
aa(lp13
F48.42616617578954
aF-60.06989739381064
aF-358.8791460902513
aF4.272547158624459
aF2.7646015351590183
aF9723.651896068106
aF3.4490875858976526
aF16.94194193374086
aF1.7576184568073292
aF2.0465152757473093
aa(lp14
F49.42616617578954
aF-60.06989739381064
aF-358.8791460902513
aF4.272547158624459
aF2.7646015351590183
aF9723.651896068106
aF3.4490875858976526
aF16.94194193374086
aF1.7576184568073292
aF2.0465152757473093
aa(lp15
F50.42616617578954
aF-60.06989739381064
aF-358.8791460902513
aF4.272547158624459
aF2.7646015351590183
aF9723.651896068106
aF3.4490875858976526
aF16.94194193374086
aF1.7576184568073292
aF2.0465152757473093
aa(lp16
F51.42616617578954
aF-60.06989739381064
aF-358.8791460902513
aF4.272547158624459
aF2.7646015351590183
aF9723.651896068106
aF3.4490875858976526
aF16.94194193374086
aF1.7576184568073292
aF2.0465152757473093
aa(lp17
F52.42616617578954
aF-60.06989739381064
aF-358.8791460902513
aF4.272547158624459
aF2.7646015351590183
aF9723.651896068106
aF3.4490875858976526
aF16.94194193374086
aF1.7576184568073292
aF2.0465152757473093
aa(lp18
F53.42616617578954
aF-60.06989739381064
aF-358.8791460902513
aF4.272547158624459
aF2.7646015351590183
aF9723.651896068106
aF3.4490875858976526
aF16.94194193374086
aF1.7576184568073292
aF2.0465152757473093
aa(lp19
F54.42616617578954
aF-60.06989739381064
aF-358.8791460902513
aF4.272547158624459
aF2.7646015351590183
aF9723.651896068106
aF3.4490875858976526
aF16.94194193374086
aF1.7576184568073292
aF2.0465152757473093
aa(lp20
F55.42616617578954
aF-60.06989739381064
aF-358.8791460902513
aF4.272547158624459
aF2.7646015351590183
aF9723.651896068106
aF3.4490875858976526
aF16.94194193374086
aF1.7576184568073292
aF2.0465152757473093
aa(lp21
F56.42616617578954
aF-60.06989739381064
aF-358.8791460902513
aF4.272547158624459
aF2.7646015351590183
aF9723.651896068106
aF3.4490875858976526
aF16.94194193374086
aF1.7576184568073292
aF2.0465152757473093
aa(lp22
F57.42616617578954
aF-60.06989739381064
aF-358.8791460902513
aF4.272547158624459
aF2.7646015351590183
aF9723.651896068106
aF3.4490875858976526
aF16.94194193374086
aF1.7576184568073292
aF2.0465152757473093
aa(lp23
F58.42616617578954
aF-60.06989739381064
aF-358.8791460902513
aF4.272547158624459
aF2.7646015351590183
aF9723.651896068106
aF3.4490875858976526
aF16.94194193374086
aF1.7576184568073292
aF2.0465152757473093
aa(lp24
F59.42616617578954
aF-60.06989739381064
aF-358.8791460902513
aF4.272547158624459
aF2.7646015351590183
aF9723.651896068106
aF3.4490875858976526
aF16.94194193374086
aF1.7576184568073292
aF2.0465152757473093
aa(lp25
F60.42616617578954
aF-60.06989739381064
aF-358.8791460902513
aF4.272547158624459
aF2.7646015351590183
aF9723.651896068106
aF3.4490875858976526
aF16.94194193374086
aF1.7576184568073292
aF2.0465152757473093
aa(lp26
F61.42616617578954
aF-60.06989739381064
aF-358.8791460902513
aF4.272547158624459
aF2.7646015351590183
aF9723.651896068106
aF3.4490875858976526
aF16.94194193374086
aF1.7576184568073292
aF2.0465152757473093
aa(lp27
F62.42616617578954
aF-60.06989739381064
aF-358.8791460902513
aF4.272547158624459
aF2.7646015351590183
aF9723.651896068106
aF3.4490875858976526
aF16.94194193374086
aF1.7576184568073292
aF2.0465152757473093
aa(lp28
F63.42616617578954
aF-60.06989739381064
aF-358.8791460902513
aF4.272547158624459
aF2.7646015351590183
aF9723.651896068106
aF3.4490875858976526
aF16.94194193374086
aF1.7576184568073292
aF2.0465152757473093
aa(lp29
F64.42616617578955
aF-60.06989739381064
aF-358.8791460902513
aF4.272547158624459
aF2.7646015351590183
aF9723.651896068106
aF3.4490875858976526
aF16.94194193374086
aF1.7576184568073292
aF2.0465152757473093
aa(lp30
F65.42616617578955
aF-60.06989739381064
aF-358.8791460902513
aF4.272547158624459
aF2.7646015351590183
aF9723.651896068106
aF3.4490875858976526
aF16.94194193374086
aF1.7576184568073292
aF2.0465152757473093
aa(lp31
F66.42616617578955
aF-60.06989739381064
aF-358.8791460902513
aF4.272547158624459
aF2.7646015351590183
aF9723.651896068106
aF3.4490875858976526
aF16.94194193374086
aF1.7576184568073292
aF2.0465152757473093
aa(lp32
F67.42616617578955
aF-60.06989739381064
aF-358.8791460902513
aF4.272547158624459
aF2.7646015351590183
aF9723.651896068106
aF3.4490875858976526
aF16.94194193374086
aF1.7576184568073292
aF2.0465152757473093
aa(lp33
F68.42616617578955
aF-60.06989739381064
aF-358.8791460902513
aF4.272547158624459
aF2.7646015351590183
aF9723.651896068106
aF3.4490875858976526
aF16.94194193374086
aF1.7576184568073292
aF2.0465152757473093
aa(lp34
F69.42616617578955
aF-60.06989739381064
aF-358.8791460902513
aF4.272547158624459
aF2.7646015351590183
aF9723.651896068106
aF3.4490875858976526
aF16.94194193374086
aF1.7576184568073292
aF2.0465152757473093
aa(lp35
F70.42616617578955
aF-60.06989739381064
aF-358.8791460902513
aF4.272547158624459
aF2.7646015351590183
aF9723.651896068106
aF3.4490875858976526
aF16.94194193374086
aF1.7576184568073292
aF2.0465152757473093
aa(lp36
F71.42616617578955
aF-60.06989739381064
aF-358.8791460902513
aF4.272547158624459
aF2.7646015351590183
aF9723.651896068106
aF3.4490875858976526
aF16.94194193374086
aF1.7576184568073292
aF2.0465152757473093
aa(lp37
F72.42616617578955
aF-60.06989739381064
aF-358.8791460902513
aF4.272547158624459
aF2.7646015351590183
aF9723.651896068106
aF3.4490875858976526
aF16.94194193374086
aF1.7576184568073292
aF2.0465152757473093
aa(lp38
F73.42616617578955
aF-60.06989739381064
aF-358.8791460902513
aF4.272547158624459
aF2.7646015351590183
aF9723.651896068106
aF3.4490875858976526
aF16.94194193374086
aF1.7576184568073292
aF2.0465152757473093
aa(lp39
F74.42616617578955
aF-60.06989739381064
aF-358.8791460902513
aF4.272547158624459
aF2.7646015351590183
aF9723.651896068106
aF3.4490875858976526
aF16.94194193374086
aF1.7576184568073292
aF2.0465152757473093
aa(lp40
F75.42616617578955
aF-60.06989739381064
aF-358.8791460902513
aF4.272547158624459
aF2.7646015351590183
aF9723.651896068106
aF3.4490875858976526
aF16.94194193374086
aF1.7576184568073292
aF2.0465152757473093
aa(lp41
F76.42616617578955
aF-60.06989739381064
aF-358.8791460902513
aF4.272547158624459
aF2.7646015351590183
aF9723.651896068106
aF3.4490875858976526
aF16.94194193374086
aF1.7576184568073292
aF2.0465152757473093
aa(lp42
F56.42616617578954
aF-79.06989739381063
aF-358.8791460902513
aF4.272547158624459
aF2.7646015351590183
aF9723.651896068106
aF3.4490875858976526
aF16.94194193374086
aF1.7576184568073292
aF2.0465152757473093
aa(lp43
F56.42616617578954
aF-78.06989739381063
aF-358.8791460902513
aF4.272547158624459
aF2.7646015351590183
aF9723.651896068106
aF3.4490875858976526
aF16.94194193374086
aF1.7576184568073292
aF2.0465152757473093
aa(lp44
F56.42616617578954
aF-77.06989739381063
aF-358.8791460902513
aF4.272547158624459
aF2.7646015351590183
aF9723.651896068106
aF3.4490875858976526
aF16.94194193374086
aF1.7576184568073292
aF2.0465152757473093
aa(lp45
F56.42616617578954
aF-76.06989739381063
aF-358.8791460902513
aF4.272547158624459
aF2.7646015351590183
aF9723.651896068106
aF3.4490875858976526
aF16.94194193374086
aF1.7576184568073292
aF2.0465152757473093
aa(lp46
F56.42616617578954
aF-75.06989739381063
aF-358.8791460902513
aF4.272547158624459
aF2.7646015351590183
aF9723.651896068106
aF3.4490875858976526
aF16.94194193374086
aF1.7576184568073292
aF2.0465152757473093
aa(lp47
F56.42616617578954
aF-74.06989739381063
aF-358.8791460902513
aF4.272547158624459
aF2.7646015351590183
aF9723.651896068106
aF3.4490875858976526
aF16.94194193374086
aF1.7576184568073292
aF2.0465152757473093
aa(lp48
F56.42616617578954
aF-73.06989739381063
aF-358.8791460902513
aF4.272547158624459
aF2.7646015351590183
aF9723.651896068106
aF3.4490875858976526
aF16.94194193374086
aF1.7576184568073292
aF2.0465152757473093
aa(lp49
F56.42616617578954
aF-72.06989739381063
aF-358.8791460902513
aF4.272547158624459
aF2.7646015351590183
aF9723.651896068106
aF3.4490875858976526
aF16.94194193374086
aF1.7576184568073292
aF2.0465152757473093
aa(lp50
F56.42616617578954
aF-71.06989739381063
aF-358.8791460902513
aF4.272547158624459
aF2.7646015351590183
aF9723.651896068106
aF3.4490875858976526
aF16.94194193374086
aF1.7576184568073292
aF2.0465152757473093
aa(lp51
F56.42616617578954
aF-70.06989739381063
aF-358.8791460902513
aF4.272547158624459
aF2.7646015351590183
aF9723.651896068106
aF3.4490875858976526
aF16.94194193374086
aF1.7576184568073292
aF2.0465152757473093
aa(lp52
F56.42616617578954
aF-69.06989739381063
aF-358.8791460902513
aF4.272547158624459
aF2.7646015351590183
aF9723.651896068106
aF3.4490875858976526
aF16.94194193374086
aF1.7576184568073292
aF2.0465152757473093
aa(lp53
F56.42616617578954
aF-68.06989739381063
aF-358.8791460902513
aF4.272547158624459
aF2.7646015351590183
aF9723.651896068106
aF3.4490875858976526
aF16.94194193374086
aF1.7576184568073292
aF2.0465152757473093
aa(lp54
F56.42616617578954
aF-67.06989739381063
aF-358.8791460902513
aF4.272547158624459
aF2.7646015351590183
aF9723.651896068106
aF3.4490875858976526
aF16.94194193374086
aF1.7576184568073292
aF2.0465152757473093
aa(lp55
F56.42616617578954
aF-66.06989739381063
aF-358.8791460902513
aF4.272547158624459
aF2.7646015351590183
aF9723.651896068106
aF3.4490875858976526
aF16.94194193374086
aF1.7576184568073292
aF2.0465152757473093
aa(lp56
F56.42616617578954
aF-65.06989739381063
aF-358.8791460902513
aF4.272547158624459
aF2.7646015351590183
aF9723.651896068106
aF3.4490875858976526
aF16.94194193374086
aF1.7576184568073292
aF2.0465152757473093
aa(lp57
F56.42616617578954
aF-64.06989739381063
aF-358.8791460902513
aF4.272547158624459
aF2.7646015351590183
aF9723.651896068106
aF3.4490875858976526
aF16.94194193374086
aF1.7576184568073292
aF2.0465152757473093
aa(lp58
F56.42616617578954
aF-63.069897393810635
aF-358.8791460902513
aF4.272547158624459
aF2.7646015351590183
aF9723.651896068106
aF3.4490875858976526
aF16.94194193374086
aF1.7576184568073292
aF2.0465152757473093
aa(lp59
F56.42616617578954
aF-62.069897393810635
aF-358.8791460902513
aF4.272547158624459
aF2.7646015351590183
aF9723.651896068106
aF3.4490875858976526
aF16.94194193374086
aF1.7576184568073292
aF2.0465152757473093
aa(lp60
F56.42616617578954
aF-61.069897393810635
aF-358.8791460902513
aF4.272547158624459
aF2.7646015351590183
aF9723.651896068106
aF3.4490875858976526
aF16.94194193374086
aF1.7576184568073292
aF2.0465152757473093
aa(lp61
F56.42616617578954
aF-60.069897393810635
aF-358.8791460902513
aF4.272547158624459
aF2.7646015351590183
aF9723.651896068106
aF3.4490875858976526
aF16.94194193374086
aF1.7576184568073292
aF2.0465152757473093
aa(lp62
F56.42616617578954
aF-59.069897393810635
aF-358.8791460902513
aF4.272547158624459
aF2.7646015351590183
aF9723.651896068106
aF3.4490875858976526
aF16.94194193374086
aF1.7576184568073292
aF2.0465152757473093
aa(lp63
F56.42616617578954
aF-58.069897393810635
aF-358.8791460902513
aF4.272547158624459
aF2.7646015351590183
aF9723.651896068106
aF3.4490875858976526
aF16.94194193374086
aF1.7576184568073292
aF2.0465152757473093
aa(lp64
F56.42616617578954
aF-57.069897393810635
aF-358.8791460902513
aF4.272547158624459
aF2.7646015351590183
aF9723.651896068106
aF3.4490875858976526
aF16.94194193374086
aF1.7576184568073292
aF2.0465152757473093
aa(lp65
F56.42616617578954
aF-56.069897393810635
aF-358.8791460902513
aF4.272547158624459
aF2.7646015351590183
aF9723.651896068106
aF3.4490875858976526
aF16.94194193374086
aF1.7576184568073292
aF2.0465152757473093
aa(lp66
F56.42616617578954
aF-55.069897393810635
aF-358.8791460902513
aF4.272547158624459
aF2.7646015351590183
aF9723.651896068106
aF3.4490875858976526
aF16.94194193374086
aF1.7576184568073292
aF2.0465152757473093
aa(lp67
F56.42616617578954
aF-54.069897393810635
aF-358.8791460902513
aF4.272547158624459
aF2.7646015351590183
aF9723.651896068106
aF3.4490875858976526
aF16.94194193374086
aF1.7576184568073292
aF2.0465152757473093
aa(lp68
F56.42616617578954
aF-53.069897393810635
aF-358.8791460902513
aF4.272547158624459
aF2.7646015351590183
aF9723.651896068106
aF3.4490875858976526
aF16.94194193374086
aF1.7576184568073292
aF2.0465152757473093
aa(lp69
F56.42616617578954
aF-52.069897393810635
aF-358.8791460902513
aF4.272547158624459
aF2.7646015351590183
aF9723.651896068106
aF3.4490875858976526
aF16.94194193374086
aF1.7576184568073292
aF2.0465152757473093
aa(lp70
F56.42616617578954
aF-51.069897393810635
aF-358.8791460902513
aF4.272547158624459
aF2.7646015351590183
aF9723.651896068106
aF3.4490875858976526
aF16.94194193374086
aF1.7576184568073292
aF2.0465152757473093
aa(lp71
F56.42616617578954
aF-50.069897393810635
aF-358.8791460902513
aF4.272547158624459
aF2.7646015351590183
aF9723.651896068106
aF3.4490875858976526
aF16.94194193374086
aF1.7576184568073292
aF2.0465152757473093
aa(lp72
F56.42616617578954
aF-49.069897393810635
aF-358.8791460902513
aF4.272547158624459
aF2.7646015351590183
aF9723.651896068106
aF3.4490875858976526
aF16.94194193374086
aF1.7576184568073292
aF2.0465152757473093
aa(lp73
F56.42616617578954
aF-48.069897393810635
aF-358.8791460902513
aF4.272547158624459
aF2.7646015351590183
aF9723.651896068106
aF3.4490875858976526
aF16.94194193374086
aF1.7576184568073292
aF2.0465152757473093
aa(lp74
F56.42616617578954
aF-47.069897393810635
aF-358.8791460902513
aF4.272547158624459
aF2.7646015351590183
aF9723.651896068106
aF3.4490875858976526
aF16.94194193374086
aF1.7576184568073292
aF2.0465152757473093
aa(lp75
F56.42616617578954
aF-46.069897393810635
aF-358.8791460902513
aF4.272547158624459
aF2.7646015351590183
aF9723.651896068106
aF3.4490875858976526
aF16.94194193374086
aF1.7576184568073292
aF2.0465152757473093
aa(lp76
F56.42616617578954
aF-45.069897393810635
aF-358.8791460902513
aF4.272547158624459
aF2.7646015351590183
aF9723.651896068106
aF3.4490875858976526
aF16.94194193374086
aF1.7576184568073292
aF2.0465152757473093
aa(lp77
F56.42616617578954
aF-44.069897393810635
aF-358.8791460902513
aF4.272547158624459
aF2.7646015351590183
aF9723.651896068106
aF3.4490875858976526
aF16.94194193374086
aF1.7576184568073292
aF2.0465152757473093
aa(lp78
F56.42616617578954
aF-43.069897393810635
aF-358.8791460902513
aF4.272547158624459
aF2.7646015351590183
aF9723.651896068106
aF3.4490875858976526
aF16.94194193374086
aF1.7576184568073292
aF2.0465152757473093
aa(lp79
F56.42616617578954
aF-42.069897393810635
aF-358.8791460902513
aF4.272547158624459
aF2.7646015351590183
aF9723.651896068106
aF3.4490875858976526
aF16.94194193374086
aF1.7576184568073292
aF2.0465152757473093
aa(lp80
F56.42616617578954
aF-41.069897393810635
aF-358.8791460902513
aF4.272547158624459
aF2.7646015351590183
aF9723.651896068106
aF3.4490875858976526
aF16.94194193374086
aF1.7576184568073292
aF2.0465152757473093
aa(lp81
F56.42616617578954
aF-40.069897393810635
aF-358.8791460902513
aF4.272547158624459
aF2.7646015351590183
aF9723.651896068106
aF3.4490875858976526
aF16.94194193374086
aF1.7576184568073292
aF2.0465152757473093
aa(lp82
F56.42616617578954
aF-60.06989739381064
aF-377.8791460902513
aF4.272547158624459
aF2.7646015351590183
aF9723.651896068106
aF3.4490875858976526
aF16.94194193374086
aF1.7576184568073292
aF2.0465152757473093
aa(lp83
F56.42616617578954
aF-60.06989739381064
aF-376.8791460902513
aF4.272547158624459
aF2.7646015351590183
aF9723.651896068106
aF3.4490875858976526
aF16.94194193374086
aF1.7576184568073292
aF2.0465152757473093
aa(lp84
F56.42616617578954
aF-60.06989739381064
aF-375.8791460902513
aF4.272547158624459
aF2.7646015351590183
aF9723.651896068106
aF3.4490875858976526
aF16.94194193374086
aF1.7576184568073292
aF2.0465152757473093
aa(lp85
F56.42616617578954
aF-60.06989739381064
aF-374.8791460902513
aF4.272547158624459
aF2.7646015351590183
aF9723.651896068106
aF3.4490875858976526
aF16.94194193374086
aF1.7576184568073292
aF2.0465152757473093
aa(lp86
F56.42616617578954
aF-60.06989739381064
aF-373.8791460902513
aF4.272547158624459
aF2.7646015351590183
aF9723.651896068106
aF3.4490875858976526
aF16.94194193374086
aF1.7576184568073292
aF2.0465152757473093
aa(lp87
F56.42616617578954
aF-60.06989739381064
aF-372.8791460902513
aF4.272547158624459
aF2.7646015351590183
aF9723.651896068106
aF3.4490875858976526
aF16.94194193374086
aF1.7576184568073292
aF2.0465152757473093
aa(lp88
F56.42616617578954
aF-60.06989739381064
aF-371.8791460902513
aF4.272547158624459
aF2.7646015351590183
aF9723.651896068106
aF3.4490875858976526
aF16.94194193374086
aF1.7576184568073292
aF2.0465152757473093
aa(lp89
F56.42616617578954
aF-60.06989739381064
aF-370.8791460902513
aF4.272547158624459
aF2.7646015351590183
aF9723.651896068106
aF3.4490875858976526
aF16.94194193374086
aF1.7576184568073292
aF2.0465152757473093
aa(lp90
F56.42616617578954
aF-60.06989739381064
aF-369.8791460902513
aF4.272547158624459
aF2.7646015351590183
aF9723.651896068106
aF3.4490875858976526
aF16.94194193374086
aF1.7576184568073292
aF2.0465152757473093
aa(lp91
F56.42616617578954
aF-60.06989739381064
aF-368.8791460902513
aF4.272547158624459
aF2.7646015351590183
aF9723.651896068106
aF3.4490875858976526
aF16.94194193374086
aF1.7576184568073292
aF2.0465152757473093
aa(lp92
F56.42616617578954
aF-60.06989739381064
aF-367.8791460902513
aF4.272547158624459
aF2.7646015351590183
aF9723.651896068106
aF3.4490875858976526
aF16.94194193374086
aF1.7576184568073292
aF2.0465152757473093
aa(lp93
F56.42616617578954
aF-60.06989739381064
aF-366.8791460902513
aF4.272547158624459
aF2.7646015351590183
aF9723.651896068106
aF3.4490875858976526
aF16.94194193374086
aF1.7576184568073292
aF2.0465152757473093
aa(lp94
F56.42616617578954
aF-60.06989739381064
aF-365.8791460902513
aF4.272547158624459
aF2.7646015351590183
aF9723.651896068106
aF3.4490875858976526
aF16.94194193374086
aF1.7576184568073292
aF2.0465152757473093
aa(lp95
F56.42616617578954
aF-60.06989739381064
aF-364.8791460902513
aF4.272547158624459
aF2.7646015351590183
aF9723.651896068106
aF3.4490875858976526
aF16.94194193374086
aF1.7576184568073292
aF2.0465152757473093
aa(lp96
F56.42616617578954
aF-60.06989739381064
aF-363.8791460902513
aF4.272547158624459
aF2.7646015351590183
aF9723.651896068106
aF3.4490875858976526
aF16.94194193374086
aF1.7576184568073292
aF2.0465152757473093
aa(lp97
F56.42616617578954
aF-60.06989739381064
aF-362.8791460902513
aF4.272547158624459
aF2.7646015351590183
aF9723.651896068106
aF3.4490875858976526
aF16.94194193374086
aF1.7576184568073292
aF2.0465152757473093
aa(lp98
F56.42616617578954
aF-60.06989739381064
aF-361.8791460902513
aF4.272547158624459
aF2.7646015351590183
aF9723.651896068106
aF3.4490875858976526
aF16.94194193374086
aF1.7576184568073292
aF2.0465152757473093
aa(lp99
F56.42616617578954
aF-60.06989739381064
aF-360.8791460902513
aF4.272547158624459
aF2.7646015351590183
aF9723.651896068106
aF3.4490875858976526
aF16.94194193374086
aF1.7576184568073292
aF2.0465152757473093
aa(lp100
F56.42616617578954
aF-60.06989739381064
aF-359.8791460902513
aF4.272547158624459
aF2.7646015351590183
aF9723.651896068106
aF3.4490875858976526
aF16.94194193374086
aF1.7576184568073292
aF2.0465152757473093
aa(lp101
F56.42616617578954
aF-60.06989739381064
aF-358.8791460902513
aF4.272547158624459
aF2.7646015351590183
aF9723.651896068106
aF3.4490875858976526
aF16.94194193374086
aF1.7576184568073292
aF2.0465152757473093
aa(lp102
F56.42616617578954
aF-60.06989739381064
aF-357.8791460902513
aF4.272547158624459
aF2.7646015351590183
aF9723.651896068106
aF3.4490875858976526
aF16.94194193374086
aF1.7576184568073292
aF2.0465152757473093
aa(lp103
F56.42616617578954
aF-60.06989739381064
aF-356.8791460902513
aF4.272547158624459
aF2.7646015351590183
aF9723.651896068106
aF3.4490875858976526
aF16.94194193374086
aF1.7576184568073292
aF2.0465152757473093
aa(lp104
F56.42616617578954
aF-60.06989739381064
aF-355.8791460902513
aF4.272547158624459
aF2.7646015351590183
aF9723.651896068106
aF3.4490875858976526
aF16.94194193374086
aF1.7576184568073292
aF2.0465152757473093
aa(lp105
F56.42616617578954
aF-60.06989739381064
aF-354.8791460902513
aF4.272547158624459
aF2.7646015351590183
aF9723.651896068106
aF3.4490875858976526
aF16.94194193374086
aF1.7576184568073292
aF2.0465152757473093
aa(lp106
F56.42616617578954
aF-60.06989739381064
aF-353.8791460902513
aF4.272547158624459
aF2.7646015351590183
aF9723.651896068106
aF3.4490875858976526
aF16.94194193374086
aF1.7576184568073292
aF2.0465152757473093
aa(lp107
F56.42616617578954
aF-60.06989739381064
aF-352.8791460902513
aF4.272547158624459
aF2.7646015351590183
aF9723.651896068106
aF3.4490875858976526
aF16.94194193374086
aF1.7576184568073292
aF2.0465152757473093
aa(lp108
F56.42616617578954
aF-60.06989739381064
aF-351.8791460902513
aF4.272547158624459
aF2.7646015351590183
aF9723.651896068106
aF3.4490875858976526
aF16.94194193374086
aF1.7576184568073292
aF2.0465152757473093
aa(lp109
F56.42616617578954
aF-60.06989739381064
aF-350.8791460902513
aF4.272547158624459
aF2.7646015351590183
aF9723.651896068106
aF3.4490875858976526
aF16.94194193374086
aF1.7576184568073292
aF2.0465152757473093
aa(lp110
F56.42616617578954
aF-60.06989739381064
aF-349.8791460902513
aF4.272547158624459
aF2.7646015351590183
aF9723.651896068106
aF3.4490875858976526
aF16.94194193374086
aF1.7576184568073292
aF2.0465152757473093
aa(lp111
F56.42616617578954
aF-60.06989739381064
aF-348.8791460902513
aF4.272547158624459
aF2.7646015351590183
aF9723.651896068106
aF3.4490875858976526
aF16.94194193374086
aF1.7576184568073292
aF2.0465152757473093
aa(lp112
F56.42616617578954
aF-60.06989739381064
aF-347.8791460902513
aF4.272547158624459
aF2.7646015351590183
aF9723.651896068106
aF3.4490875858976526
aF16.94194193374086
aF1.7576184568073292
aF2.0465152757473093
aa(lp113
F56.42616617578954
aF-60.06989739381064
aF-346.8791460902513
aF4.272547158624459
aF2.7646015351590183
aF9723.651896068106
aF3.4490875858976526
aF16.94194193374086
aF1.7576184568073292
aF2.0465152757473093
aa(lp114
F56.42616617578954
aF-60.06989739381064
aF-345.8791460902513
aF4.272547158624459
aF2.7646015351590183
aF9723.651896068106
aF3.4490875858976526
aF16.94194193374086
aF1.7576184568073292
aF2.0465152757473093
aa(lp115
F56.42616617578954
aF-60.06989739381064
aF-344.8791460902513
aF4.272547158624459
aF2.7646015351590183
aF9723.651896068106
aF3.4490875858976526
aF16.94194193374086
aF1.7576184568073292
aF2.0465152757473093
aa(lp116
F56.42616617578954
aF-60.06989739381064
aF-343.8791460902513
aF4.272547158624459
aF2.7646015351590183
aF9723.651896068106
aF3.4490875858976526
aF16.94194193374086
aF1.7576184568073292
aF2.0465152757473093
aa(lp117
F56.42616617578954
aF-60.06989739381064
aF-342.8791460902513
aF4.272547158624459
aF2.7646015351590183
aF9723.651896068106
aF3.4490875858976526
aF16.94194193374086
aF1.7576184568073292
aF2.0465152757473093
aa(lp118
F56.42616617578954
aF-60.06989739381064
aF-341.8791460902513
aF4.272547158624459
aF2.7646015351590183
aF9723.651896068106
aF3.4490875858976526
aF16.94194193374086
aF1.7576184568073292
aF2.0465152757473093
aa(lp119
F56.42616617578954
aF-60.06989739381064
aF-340.8791460902513
aF4.272547158624459
aF2.7646015351590183
aF9723.651896068106
aF3.4490875858976526
aF16.94194193374086
aF1.7576184568073292
aF2.0465152757473093
aa(lp120
F56.42616617578954
aF-60.06989739381064
aF-339.8791460902513
aF4.272547158624459
aF2.7646015351590183
aF9723.651896068106
aF3.4490875858976526
aF16.94194193374086
aF1.7576184568073292
aF2.0465152757473093
aa(lp121
F56.42616617578954
aF-60.06989739381064
aF-338.8791460902513
aF4.272547158624459
aF2.7646015351590183
aF9723.651896068106
aF3.4490875858976526
aF16.94194193374086
aF1.7576184568073292
aF2.0465152757473093
aa(lp122
F56.42616617578954
aF-60.06989739381064
aF-358.8791460902513
aF3.3225471586244586
aF2.7646015351590183
aF9723.651896068106
aF3.4490875858976526
aF16.94194193374086
aF1.7576184568073292
aF2.0465152757473093
aa(lp123
F56.42616617578954
aF-60.06989739381064
aF-358.8791460902513
aF3.3725471586244584
aF2.7646015351590183
aF9723.651896068106
aF3.4490875858976526
aF16.94194193374086
aF1.7576184568073292
aF2.0465152757473093
aa(lp124
F56.42616617578954
aF-60.06989739381064
aF-358.8791460902513
aF3.4225471586244582
aF2.7646015351590183
aF9723.651896068106
aF3.4490875858976526
aF16.94194193374086
aF1.7576184568073292
aF2.0465152757473093
aa(lp125
F56.42616617578954
aF-60.06989739381064
aF-358.8791460902513
aF3.472547158624458
aF2.7646015351590183
aF9723.651896068106
aF3.4490875858976526
aF16.94194193374086
aF1.7576184568073292
aF2.0465152757473093
aa(lp126
F56.42616617578954
aF-60.06989739381064
aF-358.8791460902513
aF3.522547158624458
aF2.7646015351590183
aF9723.651896068106
aF3.4490875858976526
aF16.94194193374086
aF1.7576184568073292
aF2.0465152757473093
aa(lp127
F56.42616617578954
aF-60.06989739381064
aF-358.8791460902513
aF3.5725471586244577
aF2.7646015351590183
aF9723.651896068106
aF3.4490875858976526
aF16.94194193374086
aF1.7576184568073292
aF2.0465152757473093
aa(lp128
F56.42616617578954
aF-60.06989739381064
aF-358.8791460902513
aF3.6225471586244575
aF2.7646015351590183
aF9723.651896068106
aF3.4490875858976526
aF16.94194193374086
aF1.7576184568073292
aF2.0465152757473093
aa(lp129
F56.42616617578954
aF-60.06989739381064
aF-358.8791460902513
aF3.6725471586244574
aF2.7646015351590183
aF9723.651896068106
aF3.4490875858976526
aF16.94194193374086
aF1.7576184568073292
aF2.0465152757473093
aa(lp130
F56.42616617578954
aF-60.06989739381064
aF-358.8791460902513
aF3.722547158624457
aF2.7646015351590183
aF9723.651896068106
aF3.4490875858976526
aF16.94194193374086
aF1.7576184568073292
aF2.0465152757473093
aa(lp131
F56.42616617578954
aF-60.06989739381064
aF-358.8791460902513
aF3.772547158624457
aF2.7646015351590183
aF9723.651896068106
aF3.4490875858976526
aF16.94194193374086
aF1.7576184568073292
aF2.0465152757473093
aa(lp132
F56.42616617578954
aF-60.06989739381064
aF-358.8791460902513
aF3.822547158624457
aF2.7646015351590183
aF9723.651896068106
aF3.4490875858976526
aF16.94194193374086
aF1.7576184568073292
aF2.0465152757473093
aa(lp133
F56.42616617578954
aF-60.06989739381064
aF-358.8791460902513
aF3.8725471586244566
aF2.7646015351590183
aF9723.651896068106
aF3.4490875858976526
aF16.94194193374086
aF1.7576184568073292
aF2.0465152757473093
aa(lp134
F56.42616617578954
aF-60.06989739381064
aF-358.8791460902513
aF3.9225471586244565
aF2.7646015351590183
aF9723.651896068106
aF3.4490875858976526
aF16.94194193374086
aF1.7576184568073292
aF2.0465152757473093
aa(lp135
F56.42616617578954
aF-60.06989739381064
aF-358.8791460902513
aF3.9725471586244563
aF2.7646015351590183
aF9723.651896068106
aF3.4490875858976526
aF16.94194193374086
aF1.7576184568073292
aF2.0465152757473093
aa(lp136
F56.42616617578954
aF-60.06989739381064
aF-358.8791460902513
aF4.022547158624456
aF2.7646015351590183
aF9723.651896068106
aF3.4490875858976526
aF16.94194193374086
aF1.7576184568073292
aF2.0465152757473093
aa(lp137
F56.42616617578954
aF-60.06989739381064
aF-358.8791460902513
aF4.072547158624456
aF2.7646015351590183
aF9723.651896068106
aF3.4490875858976526
aF16.94194193374086
aF1.7576184568073292
aF2.0465152757473093
aa(lp138
F56.42616617578954
aF-60.06989739381064
aF-358.8791460902513
aF4.122547158624456
aF2.7646015351590183
aF9723.651896068106
aF3.4490875858976526
aF16.94194193374086
aF1.7576184568073292
aF2.0465152757473093
aa(lp139
F56.42616617578954
aF-60.06989739381064
aF-358.8791460902513
aF4.172547158624456
aF2.7646015351590183
aF9723.651896068106
aF3.4490875858976526
aF16.94194193374086
aF1.7576184568073292
aF2.0465152757473093
aa(lp140
F56.42616617578954
aF-60.06989739381064
aF-358.8791460902513
aF4.222547158624455
aF2.7646015351590183
aF9723.651896068106
aF3.4490875858976526
aF16.94194193374086
aF1.7576184568073292
aF2.0465152757473093
aa(lp141
F56.42616617578954
aF-60.06989739381064
aF-358.8791460902513
aF4.272547158624455
aF2.7646015351590183
aF9723.651896068106
aF3.4490875858976526
aF16.94194193374086
aF1.7576184568073292
aF2.0465152757473093
aa(lp142
F56.42616617578954
aF-60.06989739381064
aF-358.8791460902513
aF4.322547158624455
aF2.7646015351590183
aF9723.651896068106
aF3.4490875858976526
aF16.94194193374086
aF1.7576184568073292
aF2.0465152757473093
aa(lp143
F56.42616617578954
aF-60.06989739381064
aF-358.8791460902513
aF4.372547158624455
aF2.7646015351590183
aF9723.651896068106
aF3.4490875858976526
aF16.94194193374086
aF1.7576184568073292
aF2.0465152757473093
aa(lp144
F56.42616617578954
aF-60.06989739381064
aF-358.8791460902513
aF4.422547158624455
aF2.7646015351590183
aF9723.651896068106
aF3.4490875858976526
aF16.94194193374086
aF1.7576184568073292
aF2.0465152757473093
aa(lp145
F56.42616617578954
aF-60.06989739381064
aF-358.8791460902513
aF4.4725471586244545
aF2.7646015351590183
aF9723.651896068106
aF3.4490875858976526
aF16.94194193374086
aF1.7576184568073292
aF2.0465152757473093
aa(lp146
F56.42616617578954
aF-60.06989739381064
aF-358.8791460902513
aF4.522547158624454
aF2.7646015351590183
aF9723.651896068106
aF3.4490875858976526
aF16.94194193374086
aF1.7576184568073292
aF2.0465152757473093
aa(lp147
F56.42616617578954
aF-60.06989739381064
aF-358.8791460902513
aF4.572547158624454
aF2.7646015351590183
aF9723.651896068106
aF3.4490875858976526
aF16.94194193374086
aF1.7576184568073292
aF2.0465152757473093
aa(lp148
F56.42616617578954
aF-60.06989739381064
aF-358.8791460902513
aF4.622547158624454
aF2.7646015351590183
aF9723.651896068106
aF3.4490875858976526
aF16.94194193374086
aF1.7576184568073292
aF2.0465152757473093
aa(lp149
F56.42616617578954
aF-60.06989739381064
aF-358.8791460902513
aF4.672547158624454
aF2.7646015351590183
aF9723.651896068106
aF3.4490875858976526
aF16.94194193374086
aF1.7576184568073292
aF2.0465152757473093
aa(lp150
F56.42616617578954
aF-60.06989739381064
aF-358.8791460902513
aF4.722547158624454
aF2.7646015351590183
aF9723.651896068106
aF3.4490875858976526
aF16.94194193374086
aF1.7576184568073292
aF2.0465152757473093
aa(lp151
F56.42616617578954
aF-60.06989739381064
aF-358.8791460902513
aF4.7725471586244534
aF2.7646015351590183
aF9723.651896068106
aF3.4490875858976526
aF16.94194193374086
aF1.7576184568073292
aF2.0465152757473093
aa(lp152
F56.42616617578954
aF-60.06989739381064
aF-358.8791460902513
aF4.822547158624453
aF2.7646015351590183
aF9723.651896068106
aF3.4490875858976526
aF16.94194193374086
aF1.7576184568073292
aF2.0465152757473093
aa(lp153
F56.42616617578954
aF-60.06989739381064
aF-358.8791460902513
aF4.872547158624453
aF2.7646015351590183
aF9723.651896068106
aF3.4490875858976526
aF16.94194193374086
aF1.7576184568073292
aF2.0465152757473093
aa(lp154
F56.42616617578954
aF-60.06989739381064
aF-358.8791460902513
aF4.922547158624453
aF2.7646015351590183
aF9723.651896068106
aF3.4490875858976526
aF16.94194193374086
aF1.7576184568073292
aF2.0465152757473093
aa(lp155
F56.42616617578954
aF-60.06989739381064
aF-358.8791460902513
aF4.972547158624453
aF2.7646015351590183
aF9723.651896068106
aF3.4490875858976526
aF16.94194193374086
aF1.7576184568073292
aF2.0465152757473093
aa(lp156
F56.42616617578954
aF-60.06989739381064
aF-358.8791460902513
aF5.022547158624453
aF2.7646015351590183
aF9723.651896068106
aF3.4490875858976526
aF16.94194193374086
aF1.7576184568073292
aF2.0465152757473093
aa(lp157
F56.42616617578954
aF-60.06989739381064
aF-358.8791460902513
aF5.072547158624452
aF2.7646015351590183
aF9723.651896068106
aF3.4490875858976526
aF16.94194193374086
aF1.7576184568073292
aF2.0465152757473093
aa(lp158
F56.42616617578954
aF-60.06989739381064
aF-358.8791460902513
aF5.122547158624452
aF2.7646015351590183
aF9723.651896068106
aF3.4490875858976526
aF16.94194193374086
aF1.7576184568073292
aF2.0465152757473093
aa(lp159
F56.42616617578954
aF-60.06989739381064
aF-358.8791460902513
aF5.172547158624452
aF2.7646015351590183
aF9723.651896068106
aF3.4490875858976526
aF16.94194193374086
aF1.7576184568073292
aF2.0465152757473093
aa(lp160
F56.42616617578954
aF-60.06989739381064
aF-358.8791460902513
aF5.222547158624452
aF2.7646015351590183
aF9723.651896068106
aF3.4490875858976526
aF16.94194193374086
aF1.7576184568073292
aF2.0465152757473093
aa(lp161
F56.42616617578954
aF-60.06989739381064
aF-358.8791460902513
aF5.272547158624452
aF2.7646015351590183
aF9723.651896068106
aF3.4490875858976526
aF16.94194193374086
aF1.7576184568073292
aF2.0465152757473093
aa(lp162
F56.42616617578954
aF-60.06989739381064
aF-358.8791460902513
aF4.272547158624459
aF2.289601535159018
aF9723.651896068106
aF3.4490875858976526
aF16.94194193374086
aF1.7576184568073292
aF2.0465152757473093
aa(lp163
F56.42616617578954
aF-60.06989739381064
aF-358.8791460902513
aF4.272547158624459
aF2.314601535159018
aF9723.651896068106
aF3.4490875858976526
aF16.94194193374086
aF1.7576184568073292
aF2.0465152757473093
aa(lp164
F56.42616617578954
aF-60.06989739381064
aF-358.8791460902513
aF4.272547158624459
aF2.339601535159018
aF9723.651896068106
aF3.4490875858976526
aF16.94194193374086
aF1.7576184568073292
aF2.0465152757473093
aa(lp165
F56.42616617578954
aF-60.06989739381064
aF-358.8791460902513
aF4.272547158624459
aF2.364601535159018
aF9723.651896068106
aF3.4490875858976526
aF16.94194193374086
aF1.7576184568073292
aF2.0465152757473093
aa(lp166
F56.42616617578954
aF-60.06989739381064
aF-358.8791460902513
aF4.272547158624459
aF2.389601535159018
aF9723.651896068106
aF3.4490875858976526
aF16.94194193374086
aF1.7576184568073292
aF2.0465152757473093
aa(lp167
F56.42616617578954
aF-60.06989739381064
aF-358.8791460902513
aF4.272547158624459
aF2.4146015351590178
aF9723.651896068106
aF3.4490875858976526
aF16.94194193374086
aF1.7576184568073292
aF2.0465152757473093
aa(lp168
F56.42616617578954
aF-60.06989739381064
aF-358.8791460902513
aF4.272547158624459
aF2.4396015351590177
aF9723.651896068106
aF3.4490875858976526
aF16.94194193374086
aF1.7576184568073292
aF2.0465152757473093
aa(lp169
F56.42616617578954
aF-60.06989739381064
aF-358.8791460902513
aF4.272547158624459
aF2.4646015351590176
aF9723.651896068106
aF3.4490875858976526
aF16.94194193374086
aF1.7576184568073292
aF2.0465152757473093
aa(lp170
F56.42616617578954
aF-60.06989739381064
aF-358.8791460902513
aF4.272547158624459
aF2.4896015351590175
aF9723.651896068106
aF3.4490875858976526
aF16.94194193374086
aF1.7576184568073292
aF2.0465152757473093
aa(lp171
F56.42616617578954
aF-60.06989739381064
aF-358.8791460902513
aF4.272547158624459
aF2.5146015351590174
aF9723.651896068106
aF3.4490875858976526
aF16.94194193374086
aF1.7576184568073292
aF2.0465152757473093
aa(lp172
F56.42616617578954
aF-60.06989739381064
aF-358.8791460902513
aF4.272547158624459
aF2.5396015351590173
aF9723.651896068106
aF3.4490875858976526
aF16.94194193374086
aF1.7576184568073292
aF2.0465152757473093
aa(lp173
F56.42616617578954
aF-60.06989739381064
aF-358.8791460902513
aF4.272547158624459
aF2.5646015351590172
aF9723.651896068106
aF3.4490875858976526
aF16.94194193374086
aF1.7576184568073292
aF2.0465152757473093
aa(lp174
F56.42616617578954
aF-60.06989739381064
aF-358.8791460902513
aF4.272547158624459
aF2.589601535159017
aF9723.651896068106
aF3.4490875858976526
aF16.94194193374086
aF1.7576184568073292
aF2.0465152757473093
aa(lp175
F56.42616617578954
aF-60.06989739381064
aF-358.8791460902513
aF4.272547158624459
aF2.614601535159017
aF9723.651896068106
aF3.4490875858976526
aF16.94194193374086
aF1.7576184568073292
aF2.0465152757473093
aa(lp176
F56.42616617578954
aF-60.06989739381064
aF-358.8791460902513
aF4.272547158624459
aF2.639601535159017
aF9723.651896068106
aF3.4490875858976526
aF16.94194193374086
aF1.7576184568073292
aF2.0465152757473093
aa(lp177
F56.42616617578954
aF-60.06989739381064
aF-358.8791460902513
aF4.272547158624459
aF2.664601535159017
aF9723.651896068106
aF3.4490875858976526
aF16.94194193374086
aF1.7576184568073292
aF2.0465152757473093
aa(lp178
F56.42616617578954
aF-60.06989739381064
aF-358.8791460902513
aF4.272547158624459
aF2.689601535159017
aF9723.651896068106
aF3.4490875858976526
aF16.94194193374086
aF1.7576184568073292
aF2.0465152757473093
aa(lp179
F56.42616617578954
aF-60.06989739381064
aF-358.8791460902513
aF4.272547158624459
aF2.7146015351590167
aF9723.651896068106
aF3.4490875858976526
aF16.94194193374086
aF1.7576184568073292
aF2.0465152757473093
aa(lp180
F56.42616617578954
aF-60.06989739381064
aF-358.8791460902513
aF4.272547158624459
aF2.7396015351590166
aF9723.651896068106
aF3.4490875858976526
aF16.94194193374086
aF1.7576184568073292
aF2.0465152757473093
aa(lp181
F56.42616617578954
aF-60.06989739381064
aF-358.8791460902513
aF4.272547158624459
aF2.7646015351590165
aF9723.651896068106
aF3.4490875858976526
aF16.94194193374086
aF1.7576184568073292
aF2.0465152757473093
aa(lp182
F56.42616617578954
aF-60.06989739381064
aF-358.8791460902513
aF4.272547158624459
aF2.7896015351590164
aF9723.651896068106
aF3.4490875858976526
aF16.94194193374086
aF1.7576184568073292
aF2.0465152757473093
aa(lp183
F56.42616617578954
aF-60.06989739381064
aF-358.8791460902513
aF4.272547158624459
aF2.8146015351590163
aF9723.651896068106
aF3.4490875858976526
aF16.94194193374086
aF1.7576184568073292
aF2.0465152757473093
aa(lp184
F56.42616617578954
aF-60.06989739381064
aF-358.8791460902513
aF4.272547158624459
aF2.8396015351590163
aF9723.651896068106
aF3.4490875858976526
aF16.94194193374086
aF1.7576184568073292
aF2.0465152757473093
aa(lp185
F56.42616617578954
aF-60.06989739381064
aF-358.8791460902513
aF4.272547158624459
aF2.864601535159016
aF9723.651896068106
aF3.4490875858976526
aF16.94194193374086
aF1.7576184568073292
aF2.0465152757473093
aa(lp186
F56.42616617578954
aF-60.06989739381064
aF-358.8791460902513
aF4.272547158624459
aF2.889601535159016
aF9723.651896068106
aF3.4490875858976526
aF16.94194193374086
aF1.7576184568073292
aF2.0465152757473093
aa(lp187
F56.42616617578954
aF-60.06989739381064
aF-358.8791460902513
aF4.272547158624459
aF2.914601535159016
aF9723.651896068106
aF3.4490875858976526
aF16.94194193374086
aF1.7576184568073292
aF2.0465152757473093
aa(lp188
F56.42616617578954
aF-60.06989739381064
aF-358.8791460902513
aF4.272547158624459
aF2.939601535159016
aF9723.651896068106
aF3.4490875858976526
aF16.94194193374086
aF1.7576184568073292
aF2.0465152757473093
aa(lp189
F56.42616617578954
aF-60.06989739381064
aF-358.8791460902513
aF4.272547158624459
aF2.964601535159016
aF9723.651896068106
aF3.4490875858976526
aF16.94194193374086
aF1.7576184568073292
aF2.0465152757473093
aa(lp190
F56.42616617578954
aF-60.06989739381064
aF-358.8791460902513
aF4.272547158624459
aF2.9896015351590157
aF9723.651896068106
aF3.4490875858976526
aF16.94194193374086
aF1.7576184568073292
aF2.0465152757473093
aa(lp191
F56.42616617578954
aF-60.06989739381064
aF-358.8791460902513
aF4.272547158624459
aF3.0146015351590156
aF9723.651896068106
aF3.4490875858976526
aF16.94194193374086
aF1.7576184568073292
aF2.0465152757473093
aa(lp192
F56.42616617578954
aF-60.06989739381064
aF-358.8791460902513
aF4.272547158624459
aF3.0396015351590155
aF9723.651896068106
aF3.4490875858976526
aF16.94194193374086
aF1.7576184568073292
aF2.0465152757473093
aa(lp193
F56.42616617578954
aF-60.06989739381064
aF-358.8791460902513
aF4.272547158624459
aF3.0646015351590155
aF9723.651896068106
aF3.4490875858976526
aF16.94194193374086
aF1.7576184568073292
aF2.0465152757473093
aa(lp194
F56.42616617578954
aF-60.06989739381064
aF-358.8791460902513
aF4.272547158624459
aF3.0896015351590154
aF9723.651896068106
aF3.4490875858976526
aF16.94194193374086
aF1.7576184568073292
aF2.0465152757473093
aa(lp195
F56.42616617578954
aF-60.06989739381064
aF-358.8791460902513
aF4.272547158624459
aF3.1146015351590153
aF9723.651896068106
aF3.4490875858976526
aF16.94194193374086
aF1.7576184568073292
aF2.0465152757473093
aa(lp196
F56.42616617578954
aF-60.06989739381064
aF-358.8791460902513
aF4.272547158624459
aF3.139601535159015
aF9723.651896068106
aF3.4490875858976526
aF16.94194193374086
aF1.7576184568073292
aF2.0465152757473093
aa(lp197
F56.42616617578954
aF-60.06989739381064
aF-358.8791460902513
aF4.272547158624459
aF3.164601535159015
aF9723.651896068106
aF3.4490875858976526
aF16.94194193374086
aF1.7576184568073292
aF2.0465152757473093
aa(lp198
F56.42616617578954
aF-60.06989739381064
aF-358.8791460902513
aF4.272547158624459
aF3.189601535159015
aF9723.651896068106
aF3.4490875858976526
aF16.94194193374086
aF1.7576184568073292
aF2.0465152757473093
aa(lp199
F56.42616617578954
aF-60.06989739381064
aF-358.8791460902513
aF4.272547158624459
aF3.214601535159015
aF9723.651896068106
aF3.4490875858976526
aF16.94194193374086
aF1.7576184568073292
aF2.0465152757473093
aa(lp200
F56.42616617578954
aF-60.06989739381064
aF-358.8791460902513
aF4.272547158624459
aF3.239601535159015
aF9723.651896068106
aF3.4490875858976526
aF16.94194193374086
aF1.7576184568073292
aF2.0465152757473093
aa(lp201
F56.42616617578954
aF-60.06989739381064
aF-358.8791460902513
aF4.272547158624459
aF3.2646015351590147
aF9723.651896068106
aF3.4490875858976526
aF16.94194193374086
aF1.7576184568073292
aF2.0465152757473093
aa(lp202
F56.42616617578954
aF-60.06989739381064
aF-358.8791460902513
aF4.272547158624459
aF2.7646015351590183
aF9685.651896068106
aF3.4490875858976526
aF16.94194193374086
aF1.7576184568073292
aF2.0465152757473093
aa(lp203
F56.42616617578954
aF-60.06989739381064
aF-358.8791460902513
aF4.272547158624459
aF2.7646015351590183
aF9687.651896068106
aF3.4490875858976526
aF16.94194193374086
aF1.7576184568073292
aF2.0465152757473093
aa(lp204
F56.42616617578954
aF-60.06989739381064
aF-358.8791460902513
aF4.272547158624459
aF2.7646015351590183
aF9689.651896068106
aF3.4490875858976526
aF16.94194193374086
aF1.7576184568073292
aF2.0465152757473093
aa(lp205
F56.42616617578954
aF-60.06989739381064
aF-358.8791460902513
aF4.272547158624459
aF2.7646015351590183
aF9691.651896068106
aF3.4490875858976526
aF16.94194193374086
aF1.7576184568073292
aF2.0465152757473093
aa(lp206
F56.42616617578954
aF-60.06989739381064
aF-358.8791460902513
aF4.272547158624459
aF2.7646015351590183
aF9693.651896068106
aF3.4490875858976526
aF16.94194193374086
aF1.7576184568073292
aF2.0465152757473093
aa(lp207
F56.42616617578954
aF-60.06989739381064
aF-358.8791460902513
aF4.272547158624459
aF2.7646015351590183
aF9695.651896068106
aF3.4490875858976526
aF16.94194193374086
aF1.7576184568073292
aF2.0465152757473093
aa(lp208
F56.42616617578954
aF-60.06989739381064
aF-358.8791460902513
aF4.272547158624459
aF2.7646015351590183
aF9697.651896068106
aF3.4490875858976526
aF16.94194193374086
aF1.7576184568073292
aF2.0465152757473093
aa(lp209
F56.42616617578954
aF-60.06989739381064
aF-358.8791460902513
aF4.272547158624459
aF2.7646015351590183
aF9699.651896068106
aF3.4490875858976526
aF16.94194193374086
aF1.7576184568073292
aF2.0465152757473093
aa(lp210
F56.42616617578954
aF-60.06989739381064
aF-358.8791460902513
aF4.272547158624459
aF2.7646015351590183
aF9701.651896068106
aF3.4490875858976526
aF16.94194193374086
aF1.7576184568073292
aF2.0465152757473093
aa(lp211
F56.42616617578954
aF-60.06989739381064
aF-358.8791460902513
aF4.272547158624459
aF2.7646015351590183
aF9703.651896068106
aF3.4490875858976526
aF16.94194193374086
aF1.7576184568073292
aF2.0465152757473093
aa(lp212
F56.42616617578954
aF-60.06989739381064
aF-358.8791460902513
aF4.272547158624459
aF2.7646015351590183
aF9705.651896068106
aF3.4490875858976526
aF16.94194193374086
aF1.7576184568073292
aF2.0465152757473093
aa(lp213
F56.42616617578954
aF-60.06989739381064
aF-358.8791460902513
aF4.272547158624459
aF2.7646015351590183
aF9707.651896068106
aF3.4490875858976526
aF16.94194193374086
aF1.7576184568073292
aF2.0465152757473093
aa(lp214
F56.42616617578954
aF-60.06989739381064
aF-358.8791460902513
aF4.272547158624459
aF2.7646015351590183
aF9709.651896068106
aF3.4490875858976526
aF16.94194193374086
aF1.7576184568073292
aF2.0465152757473093
aa(lp215
F56.42616617578954
aF-60.06989739381064
aF-358.8791460902513
aF4.272547158624459
aF2.7646015351590183
aF9711.651896068106
aF3.4490875858976526
aF16.94194193374086
aF1.7576184568073292
aF2.0465152757473093
aa(lp216
F56.42616617578954
aF-60.06989739381064
aF-358.8791460902513
aF4.272547158624459
aF2.7646015351590183
aF9713.651896068106
aF3.4490875858976526
aF16.94194193374086
aF1.7576184568073292
aF2.0465152757473093
aa(lp217
F56.42616617578954
aF-60.06989739381064
aF-358.8791460902513
aF4.272547158624459
aF2.7646015351590183
aF9715.651896068106
aF3.4490875858976526
aF16.94194193374086
aF1.7576184568073292
aF2.0465152757473093
aa(lp218
F56.42616617578954
aF-60.06989739381064
aF-358.8791460902513
aF4.272547158624459
aF2.7646015351590183
aF9717.651896068106
aF3.4490875858976526
aF16.94194193374086
aF1.7576184568073292
aF2.0465152757473093
aa(lp219
F56.42616617578954
aF-60.06989739381064
aF-358.8791460902513
aF4.272547158624459
aF2.7646015351590183
aF9719.651896068106
aF3.4490875858976526
aF16.94194193374086
aF1.7576184568073292
aF2.0465152757473093
aa(lp220
F56.42616617578954
aF-60.06989739381064
aF-358.8791460902513
aF4.272547158624459
aF2.7646015351590183
aF9721.651896068106
aF3.4490875858976526
aF16.94194193374086
aF1.7576184568073292
aF2.0465152757473093
aa(lp221
F56.42616617578954
aF-60.06989739381064
aF-358.8791460902513
aF4.272547158624459
aF2.7646015351590183
aF9723.651896068106
aF3.4490875858976526
aF16.94194193374086
aF1.7576184568073292
aF2.0465152757473093
aa(lp222
F56.42616617578954
aF-60.06989739381064
aF-358.8791460902513
aF4.272547158624459
aF2.7646015351590183
aF9725.651896068106
aF3.4490875858976526
aF16.94194193374086
aF1.7576184568073292
aF2.0465152757473093
aa(lp223
F56.42616617578954
aF-60.06989739381064
aF-358.8791460902513
aF4.272547158624459
aF2.7646015351590183
aF9727.651896068106
aF3.4490875858976526
aF16.94194193374086
aF1.7576184568073292
aF2.0465152757473093
aa(lp224
F56.42616617578954
aF-60.06989739381064
aF-358.8791460902513
aF4.272547158624459
aF2.7646015351590183
aF9729.651896068106
aF3.4490875858976526
aF16.94194193374086
aF1.7576184568073292
aF2.0465152757473093
aa(lp225
F56.42616617578954
aF-60.06989739381064
aF-358.8791460902513
aF4.272547158624459
aF2.7646015351590183
aF9731.651896068106
aF3.4490875858976526
aF16.94194193374086
aF1.7576184568073292
aF2.0465152757473093
aa(lp226
F56.42616617578954
aF-60.06989739381064
aF-358.8791460902513
aF4.272547158624459
aF2.7646015351590183
aF9733.651896068106
aF3.4490875858976526
aF16.94194193374086
aF1.7576184568073292
aF2.0465152757473093
aa(lp227
F56.42616617578954
aF-60.06989739381064
aF-358.8791460902513
aF4.272547158624459
aF2.7646015351590183
aF9735.651896068106
aF3.4490875858976526
aF16.94194193374086
aF1.7576184568073292
aF2.0465152757473093
aa(lp228
F56.42616617578954
aF-60.06989739381064
aF-358.8791460902513
aF4.272547158624459
aF2.7646015351590183
aF9737.651896068106
aF3.4490875858976526
aF16.94194193374086
aF1.7576184568073292
aF2.0465152757473093
aa(lp229
F56.42616617578954
aF-60.06989739381064
aF-358.8791460902513
aF4.272547158624459
aF2.7646015351590183
aF9739.651896068106
aF3.4490875858976526
aF16.94194193374086
aF1.7576184568073292
aF2.0465152757473093
aa(lp230
F56.42616617578954
aF-60.06989739381064
aF-358.8791460902513
aF4.272547158624459
aF2.7646015351590183
aF9741.651896068106
aF3.4490875858976526
aF16.94194193374086
aF1.7576184568073292
aF2.0465152757473093
aa(lp231
F56.42616617578954
aF-60.06989739381064
aF-358.8791460902513
aF4.272547158624459
aF2.7646015351590183
aF9743.651896068106
aF3.4490875858976526
aF16.94194193374086
aF1.7576184568073292
aF2.0465152757473093
aa(lp232
F56.42616617578954
aF-60.06989739381064
aF-358.8791460902513
aF4.272547158624459
aF2.7646015351590183
aF9745.651896068106
aF3.4490875858976526
aF16.94194193374086
aF1.7576184568073292
aF2.0465152757473093
aa(lp233
F56.42616617578954
aF-60.06989739381064
aF-358.8791460902513
aF4.272547158624459
aF2.7646015351590183
aF9747.651896068106
aF3.4490875858976526
aF16.94194193374086
aF1.7576184568073292
aF2.0465152757473093
aa(lp234
F56.42616617578954
aF-60.06989739381064
aF-358.8791460902513
aF4.272547158624459
aF2.7646015351590183
aF9749.651896068106
aF3.4490875858976526
aF16.94194193374086
aF1.7576184568073292
aF2.0465152757473093
aa(lp235
F56.42616617578954
aF-60.06989739381064
aF-358.8791460902513
aF4.272547158624459
aF2.7646015351590183
aF9751.651896068106
aF3.4490875858976526
aF16.94194193374086
aF1.7576184568073292
aF2.0465152757473093
aa(lp236
F56.42616617578954
aF-60.06989739381064
aF-358.8791460902513
aF4.272547158624459
aF2.7646015351590183
aF9753.651896068106
aF3.4490875858976526
aF16.94194193374086
aF1.7576184568073292
aF2.0465152757473093
aa(lp237
F56.42616617578954
aF-60.06989739381064
aF-358.8791460902513
aF4.272547158624459
aF2.7646015351590183
aF9755.651896068106
aF3.4490875858976526
aF16.94194193374086
aF1.7576184568073292
aF2.0465152757473093
aa(lp238
F56.42616617578954
aF-60.06989739381064
aF-358.8791460902513
aF4.272547158624459
aF2.7646015351590183
aF9757.651896068106
aF3.4490875858976526
aF16.94194193374086
aF1.7576184568073292
aF2.0465152757473093
aa(lp239
F56.42616617578954
aF-60.06989739381064
aF-358.8791460902513
aF4.272547158624459
aF2.7646015351590183
aF9759.651896068106
aF3.4490875858976526
aF16.94194193374086
aF1.7576184568073292
aF2.0465152757473093
aa(lp240
F56.42616617578954
aF-60.06989739381064
aF-358.8791460902513
aF4.272547158624459
aF2.7646015351590183
aF9761.651896068106
aF3.4490875858976526
aF16.94194193374086
aF1.7576184568073292
aF2.0465152757473093
aa(lp241
F56.42616617578954
aF-60.06989739381064
aF-358.8791460902513
aF4.272547158624459
aF2.7646015351590183
aF9763.651896068106
aF3.4490875858976526
aF16.94194193374086
aF1.7576184568073292
aF2.0465152757473093
aa(lp242
F56.42616617578954
aF-60.06989739381064
aF-358.8791460902513
aF4.272547158624459
aF2.7646015351590183
aF9723.651896068106
aF-10.800912414102347
aF16.94194193374086
aF1.7576184568073292
aF2.0465152757473093
aa(lp243
F56.42616617578954
aF-60.06989739381064
aF-358.8791460902513
aF4.272547158624459
aF2.7646015351590183
aF9723.651896068106
aF-10.050912414102347
aF16.94194193374086
aF1.7576184568073292
aF2.0465152757473093
aa(lp244
F56.42616617578954
aF-60.06989739381064
aF-358.8791460902513
aF4.272547158624459
aF2.7646015351590183
aF9723.651896068106
aF-9.300912414102347
aF16.94194193374086
aF1.7576184568073292
aF2.0465152757473093
aa(lp245
F56.42616617578954
aF-60.06989739381064
aF-358.8791460902513
aF4.272547158624459
aF2.7646015351590183
aF9723.651896068106
aF-8.550912414102347
aF16.94194193374086
aF1.7576184568073292
aF2.0465152757473093
aa(lp246
F56.42616617578954
aF-60.06989739381064
aF-358.8791460902513
aF4.272547158624459
aF2.7646015351590183
aF9723.651896068106
aF-7.800912414102347
aF16.94194193374086
aF1.7576184568073292
aF2.0465152757473093
aa(lp247
F56.42616617578954
aF-60.06989739381064
aF-358.8791460902513
aF4.272547158624459
aF2.7646015351590183
aF9723.651896068106
aF-7.050912414102347
aF16.94194193374086
aF1.7576184568073292
aF2.0465152757473093
aa(lp248
F56.42616617578954
aF-60.06989739381064
aF-358.8791460902513
aF4.272547158624459
aF2.7646015351590183
aF9723.651896068106
aF-6.300912414102347
aF16.94194193374086
aF1.7576184568073292
aF2.0465152757473093
aa(lp249
F56.42616617578954
aF-60.06989739381064
aF-358.8791460902513
aF4.272547158624459
aF2.7646015351590183
aF9723.651896068106
aF-5.550912414102347
aF16.94194193374086
aF1.7576184568073292
aF2.0465152757473093
aa(lp250
F56.42616617578954
aF-60.06989739381064
aF-358.8791460902513
aF4.272547158624459
aF2.7646015351590183
aF9723.651896068106
aF-4.800912414102347
aF16.94194193374086
aF1.7576184568073292
aF2.0465152757473093
aa(lp251
F56.42616617578954
aF-60.06989739381064
aF-358.8791460902513
aF4.272547158624459
aF2.7646015351590183
aF9723.651896068106
aF-4.050912414102347
aF16.94194193374086
aF1.7576184568073292
aF2.0465152757473093
aa(lp252
F56.42616617578954
aF-60.06989739381064
aF-358.8791460902513
aF4.272547158624459
aF2.7646015351590183
aF9723.651896068106
aF-3.3009124141023474
aF16.94194193374086
aF1.7576184568073292
aF2.0465152757473093
aa(lp253
F56.42616617578954
aF-60.06989739381064
aF-358.8791460902513
aF4.272547158624459
aF2.7646015351590183
aF9723.651896068106
aF-2.5509124141023474
aF16.94194193374086
aF1.7576184568073292
aF2.0465152757473093
aa(lp254
F56.42616617578954
aF-60.06989739381064
aF-358.8791460902513
aF4.272547158624459
aF2.7646015351590183
aF9723.651896068106
aF-1.8009124141023474
aF16.94194193374086
aF1.7576184568073292
aF2.0465152757473093
aa(lp255
F56.42616617578954
aF-60.06989739381064
aF-358.8791460902513
aF4.272547158624459
aF2.7646015351590183
aF9723.651896068106
aF-1.0509124141023474
aF16.94194193374086
aF1.7576184568073292
aF2.0465152757473093
aa(lp256
F56.42616617578954
aF-60.06989739381064
aF-358.8791460902513
aF4.272547158624459
aF2.7646015351590183
aF9723.651896068106
aF-0.30091241410234737
aF16.94194193374086
aF1.7576184568073292
aF2.0465152757473093
aa(lp257
F56.42616617578954
aF-60.06989739381064
aF-358.8791460902513
aF4.272547158624459
aF2.7646015351590183
aF9723.651896068106
aF0.44908758589765263
aF16.94194193374086
aF1.7576184568073292
aF2.0465152757473093
aa(lp258
F56.42616617578954
aF-60.06989739381064
aF-358.8791460902513
aF4.272547158624459
aF2.7646015351590183
aF9723.651896068106
aF1.1990875858976526
aF16.94194193374086
aF1.7576184568073292
aF2.0465152757473093
aa(lp259
F56.42616617578954
aF-60.06989739381064
aF-358.8791460902513
aF4.272547158624459
aF2.7646015351590183
aF9723.651896068106
aF1.9490875858976526
aF16.94194193374086
aF1.7576184568073292
aF2.0465152757473093
aa(lp260
F56.42616617578954
aF-60.06989739381064
aF-358.8791460902513
aF4.272547158624459
aF2.7646015351590183
aF9723.651896068106
aF2.6990875858976526
aF16.94194193374086
aF1.7576184568073292
aF2.0465152757473093
aa(lp261
F56.42616617578954
aF-60.06989739381064
aF-358.8791460902513
aF4.272547158624459
aF2.7646015351590183
aF9723.651896068106
aF3.4490875858976526
aF16.94194193374086
aF1.7576184568073292
aF2.0465152757473093
aa(lp262
F56.42616617578954
aF-60.06989739381064
aF-358.8791460902513
aF4.272547158624459
aF2.7646015351590183
aF9723.651896068106
aF4.199087585897653
aF16.94194193374086
aF1.7576184568073292
aF2.0465152757473093
aa(lp263
F56.42616617578954
aF-60.06989739381064
aF-358.8791460902513
aF4.272547158624459
aF2.7646015351590183
aF9723.651896068106
aF4.949087585897653
aF16.94194193374086
aF1.7576184568073292
aF2.0465152757473093
aa(lp264
F56.42616617578954
aF-60.06989739381064
aF-358.8791460902513
aF4.272547158624459
aF2.7646015351590183
aF9723.651896068106
aF5.699087585897653
aF16.94194193374086
aF1.7576184568073292
aF2.0465152757473093
aa(lp265
F56.42616617578954
aF-60.06989739381064
aF-358.8791460902513
aF4.272547158624459
aF2.7646015351590183
aF9723.651896068106
aF6.449087585897653
aF16.94194193374086
aF1.7576184568073292
aF2.0465152757473093
aa(lp266
F56.42616617578954
aF-60.06989739381064
aF-358.8791460902513
aF4.272547158624459
aF2.7646015351590183
aF9723.651896068106
aF7.199087585897653
aF16.94194193374086
aF1.7576184568073292
aF2.0465152757473093
aa(lp267
F56.42616617578954
aF-60.06989739381064
aF-358.8791460902513
aF4.272547158624459
aF2.7646015351590183
aF9723.651896068106
aF7.949087585897653
aF16.94194193374086
aF1.7576184568073292
aF2.0465152757473093
aa(lp268
F56.42616617578954
aF-60.06989739381064
aF-358.8791460902513
aF4.272547158624459
aF2.7646015351590183
aF9723.651896068106
aF8.699087585897653
aF16.94194193374086
aF1.7576184568073292
aF2.0465152757473093
aa(lp269
F56.42616617578954
aF-60.06989739381064
aF-358.8791460902513
aF4.272547158624459
aF2.7646015351590183
aF9723.651896068106
aF9.449087585897653
aF16.94194193374086
aF1.7576184568073292
aF2.0465152757473093
aa(lp270
F56.42616617578954
aF-60.06989739381064
aF-358.8791460902513
aF4.272547158624459
aF2.7646015351590183
aF9723.651896068106
aF10.199087585897653
aF16.94194193374086
aF1.7576184568073292
aF2.0465152757473093
aa(lp271
F56.42616617578954
aF-60.06989739381064
aF-358.8791460902513
aF4.272547158624459
aF2.7646015351590183
aF9723.651896068106
aF10.949087585897653
aF16.94194193374086
aF1.7576184568073292
aF2.0465152757473093
aa(lp272
F56.42616617578954
aF-60.06989739381064
aF-358.8791460902513
aF4.272547158624459
aF2.7646015351590183
aF9723.651896068106
aF11.699087585897653
aF16.94194193374086
aF1.7576184568073292
aF2.0465152757473093
aa(lp273
F56.42616617578954
aF-60.06989739381064
aF-358.8791460902513
aF4.272547158624459
aF2.7646015351590183
aF9723.651896068106
aF12.449087585897653
aF16.94194193374086
aF1.7576184568073292
aF2.0465152757473093
aa(lp274
F56.42616617578954
aF-60.06989739381064
aF-358.8791460902513
aF4.272547158624459
aF2.7646015351590183
aF9723.651896068106
aF13.199087585897653
aF16.94194193374086
aF1.7576184568073292
aF2.0465152757473093
aa(lp275
F56.42616617578954
aF-60.06989739381064
aF-358.8791460902513
aF4.272547158624459
aF2.7646015351590183
aF9723.651896068106
aF13.949087585897653
aF16.94194193374086
aF1.7576184568073292
aF2.0465152757473093
aa(lp276
F56.42616617578954
aF-60.06989739381064
aF-358.8791460902513
aF4.272547158624459
aF2.7646015351590183
aF9723.651896068106
aF14.699087585897653
aF16.94194193374086
aF1.7576184568073292
aF2.0465152757473093
aa(lp277
F56.42616617578954
aF-60.06989739381064
aF-358.8791460902513
aF4.272547158624459
aF2.7646015351590183
aF9723.651896068106
aF15.449087585897653
aF16.94194193374086
aF1.7576184568073292
aF2.0465152757473093
aa(lp278
F56.42616617578954
aF-60.06989739381064
aF-358.8791460902513
aF4.272547158624459
aF2.7646015351590183
aF9723.651896068106
aF16.19908758589765
aF16.94194193374086
aF1.7576184568073292
aF2.0465152757473093
aa(lp279
F56.42616617578954
aF-60.06989739381064
aF-358.8791460902513
aF4.272547158624459
aF2.7646015351590183
aF9723.651896068106
aF16.94908758589765
aF16.94194193374086
aF1.7576184568073292
aF2.0465152757473093
aa(lp280
F56.42616617578954
aF-60.06989739381064
aF-358.8791460902513
aF4.272547158624459
aF2.7646015351590183
aF9723.651896068106
aF17.69908758589765
aF16.94194193374086
aF1.7576184568073292
aF2.0465152757473093
aa(lp281
F56.42616617578954
aF-60.06989739381064
aF-358.8791460902513
aF4.272547158624459
aF2.7646015351590183
aF9723.651896068106
aF18.44908758589765
aF16.94194193374086
aF1.7576184568073292
aF2.0465152757473093
aa(lp282
F56.42616617578954
aF-60.06989739381064
aF-358.8791460902513
aF4.272547158624459
aF2.7646015351590183
aF9723.651896068106
aF3.4490875858976526
aF2.6919419337408605
aF1.7576184568073292
aF2.0465152757473093
aa(lp283
F56.42616617578954
aF-60.06989739381064
aF-358.8791460902513
aF4.272547158624459
aF2.7646015351590183
aF9723.651896068106
aF3.4490875858976526
aF3.4419419337408605
aF1.7576184568073292
aF2.0465152757473093
aa(lp284
F56.42616617578954
aF-60.06989739381064
aF-358.8791460902513
aF4.272547158624459
aF2.7646015351590183
aF9723.651896068106
aF3.4490875858976526
aF4.1919419337408605
aF1.7576184568073292
aF2.0465152757473093
aa(lp285
F56.42616617578954
aF-60.06989739381064
aF-358.8791460902513
aF4.272547158624459
aF2.7646015351590183
aF9723.651896068106
aF3.4490875858976526
aF4.9419419337408605
aF1.7576184568073292
aF2.0465152757473093
aa(lp286
F56.42616617578954
aF-60.06989739381064
aF-358.8791460902513
aF4.272547158624459
aF2.7646015351590183
aF9723.651896068106
aF3.4490875858976526
aF5.6919419337408605
aF1.7576184568073292
aF2.0465152757473093
aa(lp287
F56.42616617578954
aF-60.06989739381064
aF-358.8791460902513
aF4.272547158624459
aF2.7646015351590183
aF9723.651896068106
aF3.4490875858976526
aF6.4419419337408605
aF1.7576184568073292
aF2.0465152757473093
aa(lp288
F56.42616617578954
aF-60.06989739381064
aF-358.8791460902513
aF4.272547158624459
aF2.7646015351590183
aF9723.651896068106
aF3.4490875858976526
aF7.1919419337408605
aF1.7576184568073292
aF2.0465152757473093
aa(lp289
F56.42616617578954
aF-60.06989739381064
aF-358.8791460902513
aF4.272547158624459
aF2.7646015351590183
aF9723.651896068106
aF3.4490875858976526
aF7.9419419337408605
aF1.7576184568073292
aF2.0465152757473093
aa(lp290
F56.42616617578954
aF-60.06989739381064
aF-358.8791460902513
aF4.272547158624459
aF2.7646015351590183
aF9723.651896068106
aF3.4490875858976526
aF8.69194193374086
aF1.7576184568073292
aF2.0465152757473093
aa(lp291
F56.42616617578954
aF-60.06989739381064
aF-358.8791460902513
aF4.272547158624459
aF2.7646015351590183
aF9723.651896068106
aF3.4490875858976526
aF9.44194193374086
aF1.7576184568073292
aF2.0465152757473093
aa(lp292
F56.42616617578954
aF-60.06989739381064
aF-358.8791460902513
aF4.272547158624459
aF2.7646015351590183
aF9723.651896068106
aF3.4490875858976526
aF10.19194193374086
aF1.7576184568073292
aF2.0465152757473093
aa(lp293
F56.42616617578954
aF-60.06989739381064
aF-358.8791460902513
aF4.272547158624459
aF2.7646015351590183
aF9723.651896068106
aF3.4490875858976526
aF10.94194193374086
aF1.7576184568073292
aF2.0465152757473093
aa(lp294
F56.42616617578954
aF-60.06989739381064
aF-358.8791460902513
aF4.272547158624459
aF2.7646015351590183
aF9723.651896068106
aF3.4490875858976526
aF11.69194193374086
aF1.7576184568073292
aF2.0465152757473093
aa(lp295
F56.42616617578954
aF-60.06989739381064
aF-358.8791460902513
aF4.272547158624459
aF2.7646015351590183
aF9723.651896068106
aF3.4490875858976526
aF12.44194193374086
aF1.7576184568073292
aF2.0465152757473093
aa(lp296
F56.42616617578954
aF-60.06989739381064
aF-358.8791460902513
aF4.272547158624459
aF2.7646015351590183
aF9723.651896068106
aF3.4490875858976526
aF13.19194193374086
aF1.7576184568073292
aF2.0465152757473093
aa(lp297
F56.42616617578954
aF-60.06989739381064
aF-358.8791460902513
aF4.272547158624459
aF2.7646015351590183
aF9723.651896068106
aF3.4490875858976526
aF13.94194193374086
aF1.7576184568073292
aF2.0465152757473093
aa(lp298
F56.42616617578954
aF-60.06989739381064
aF-358.8791460902513
aF4.272547158624459
aF2.7646015351590183
aF9723.651896068106
aF3.4490875858976526
aF14.69194193374086
aF1.7576184568073292
aF2.0465152757473093
aa(lp299
F56.42616617578954
aF-60.06989739381064
aF-358.8791460902513
aF4.272547158624459
aF2.7646015351590183
aF9723.651896068106
aF3.4490875858976526
aF15.44194193374086
aF1.7576184568073292
aF2.0465152757473093
aa(lp300
F56.42616617578954
aF-60.06989739381064
aF-358.8791460902513
aF4.272547158624459
aF2.7646015351590183
aF9723.651896068106
aF3.4490875858976526
aF16.19194193374086
aF1.7576184568073292
aF2.0465152757473093
aa(lp301
F56.42616617578954
aF-60.06989739381064
aF-358.8791460902513
aF4.272547158624459
aF2.7646015351590183
aF9723.651896068106
aF3.4490875858976526
aF16.94194193374086
aF1.7576184568073292
aF2.0465152757473093
aa(lp302
F56.42616617578954
aF-60.06989739381064
aF-358.8791460902513
aF4.272547158624459
aF2.7646015351590183
aF9723.651896068106
aF3.4490875858976526
aF17.69194193374086
aF1.7576184568073292
aF2.0465152757473093
aa(lp303
F56.42616617578954
aF-60.06989739381064
aF-358.8791460902513
aF4.272547158624459
aF2.7646015351590183
aF9723.651896068106
aF3.4490875858976526
aF18.44194193374086
aF1.7576184568073292
aF2.0465152757473093
aa(lp304
F56.42616617578954
aF-60.06989739381064
aF-358.8791460902513
aF4.272547158624459
aF2.7646015351590183
aF9723.651896068106
aF3.4490875858976526
aF19.19194193374086
aF1.7576184568073292
aF2.0465152757473093
aa(lp305
F56.42616617578954
aF-60.06989739381064
aF-358.8791460902513
aF4.272547158624459
aF2.7646015351590183
aF9723.651896068106
aF3.4490875858976526
aF19.94194193374086
aF1.7576184568073292
aF2.0465152757473093
aa(lp306
F56.42616617578954
aF-60.06989739381064
aF-358.8791460902513
aF4.272547158624459
aF2.7646015351590183
aF9723.651896068106
aF3.4490875858976526
aF20.69194193374086
aF1.7576184568073292
aF2.0465152757473093
aa(lp307
F56.42616617578954
aF-60.06989739381064
aF-358.8791460902513
aF4.272547158624459
aF2.7646015351590183
aF9723.651896068106
aF3.4490875858976526
aF21.44194193374086
aF1.7576184568073292
aF2.0465152757473093
aa(lp308
F56.42616617578954
aF-60.06989739381064
aF-358.8791460902513
aF4.272547158624459
aF2.7646015351590183
aF9723.651896068106
aF3.4490875858976526
aF22.19194193374086
aF1.7576184568073292
aF2.0465152757473093
aa(lp309
F56.42616617578954
aF-60.06989739381064
aF-358.8791460902513
aF4.272547158624459
aF2.7646015351590183
aF9723.651896068106
aF3.4490875858976526
aF22.94194193374086
aF1.7576184568073292
aF2.0465152757473093
aa(lp310
F56.42616617578954
aF-60.06989739381064
aF-358.8791460902513
aF4.272547158624459
aF2.7646015351590183
aF9723.651896068106
aF3.4490875858976526
aF23.69194193374086
aF1.7576184568073292
aF2.0465152757473093
aa(lp311
F56.42616617578954
aF-60.06989739381064
aF-358.8791460902513
aF4.272547158624459
aF2.7646015351590183
aF9723.651896068106
aF3.4490875858976526
aF24.44194193374086
aF1.7576184568073292
aF2.0465152757473093
aa(lp312
F56.42616617578954
aF-60.06989739381064
aF-358.8791460902513
aF4.272547158624459
aF2.7646015351590183
aF9723.651896068106
aF3.4490875858976526
aF25.19194193374086
aF1.7576184568073292
aF2.0465152757473093
aa(lp313
F56.42616617578954
aF-60.06989739381064
aF-358.8791460902513
aF4.272547158624459
aF2.7646015351590183
aF9723.651896068106
aF3.4490875858976526
aF25.94194193374086
aF1.7576184568073292
aF2.0465152757473093
aa(lp314
F56.42616617578954
aF-60.06989739381064
aF-358.8791460902513
aF4.272547158624459
aF2.7646015351590183
aF9723.651896068106
aF3.4490875858976526
aF26.69194193374086
aF1.7576184568073292
aF2.0465152757473093
aa(lp315
F56.42616617578954
aF-60.06989739381064
aF-358.8791460902513
aF4.272547158624459
aF2.7646015351590183
aF9723.651896068106
aF3.4490875858976526
aF27.44194193374086
aF1.7576184568073292
aF2.0465152757473093
aa(lp316
F56.42616617578954
aF-60.06989739381064
aF-358.8791460902513
aF4.272547158624459
aF2.7646015351590183
aF9723.651896068106
aF3.4490875858976526
aF28.19194193374086
aF1.7576184568073292
aF2.0465152757473093
aa(lp317
F56.42616617578954
aF-60.06989739381064
aF-358.8791460902513
aF4.272547158624459
aF2.7646015351590183
aF9723.651896068106
aF3.4490875858976526
aF28.94194193374086
aF1.7576184568073292
aF2.0465152757473093
aa(lp318
F56.42616617578954
aF-60.06989739381064
aF-358.8791460902513
aF4.272547158624459
aF2.7646015351590183
aF9723.651896068106
aF3.4490875858976526
aF29.69194193374086
aF1.7576184568073292
aF2.0465152757473093
aa(lp319
F56.42616617578954
aF-60.06989739381064
aF-358.8791460902513
aF4.272547158624459
aF2.7646015351590183
aF9723.651896068106
aF3.4490875858976526
aF30.44194193374086
aF1.7576184568073292
aF2.0465152757473093
aa(lp320
F56.42616617578954
aF-60.06989739381064
aF-358.8791460902513
aF4.272547158624459
aF2.7646015351590183
aF9723.651896068106
aF3.4490875858976526
aF31.19194193374086
aF1.7576184568073292
aF2.0465152757473093
aa(lp321
F56.42616617578954
aF-60.06989739381064
aF-358.8791460902513
aF4.272547158624459
aF2.7646015351590183
aF9723.651896068106
aF3.4490875858976526
aF31.94194193374086
aF1.7576184568073292
aF2.0465152757473093
aa(lp322
F56.42616617578954
aF-60.06989739381064
aF-358.8791460902513
aF4.272547158624459
aF2.7646015351590183
aF9723.651896068106
aF3.4490875858976526
aF16.94194193374086
aF0.8076184568073292
aF2.0465152757473093
aa(lp323
F56.42616617578954
aF-60.06989739381064
aF-358.8791460902513
aF4.272547158624459
aF2.7646015351590183
aF9723.651896068106
aF3.4490875858976526
aF16.94194193374086
aF0.8576184568073293
aF2.0465152757473093
aa(lp324
F56.42616617578954
aF-60.06989739381064
aF-358.8791460902513
aF4.272547158624459
aF2.7646015351590183
aF9723.651896068106
aF3.4490875858976526
aF16.94194193374086
aF0.9076184568073293
aF2.0465152757473093
aa(lp325
F56.42616617578954
aF-60.06989739381064
aF-358.8791460902513
aF4.272547158624459
aF2.7646015351590183
aF9723.651896068106
aF3.4490875858976526
aF16.94194193374086
aF0.9576184568073294
aF2.0465152757473093
aa(lp326
F56.42616617578954
aF-60.06989739381064
aF-358.8791460902513
aF4.272547158624459
aF2.7646015351590183
aF9723.651896068106
aF3.4490875858976526
aF16.94194193374086
aF1.0076184568073294
aF2.0465152757473093
aa(lp327
F56.42616617578954
aF-60.06989739381064
aF-358.8791460902513
aF4.272547158624459
aF2.7646015351590183
aF9723.651896068106
aF3.4490875858976526
aF16.94194193374086
aF1.0576184568073295
aF2.0465152757473093
aa(lp328
F56.42616617578954
aF-60.06989739381064
aF-358.8791460902513
aF4.272547158624459
aF2.7646015351590183
aF9723.651896068106
aF3.4490875858976526
aF16.94194193374086
aF1.1076184568073295
aF2.0465152757473093
aa(lp329
F56.42616617578954
aF-60.06989739381064
aF-358.8791460902513
aF4.272547158624459
aF2.7646015351590183
aF9723.651896068106
aF3.4490875858976526
aF16.94194193374086
aF1.1576184568073296
aF2.0465152757473093
aa(lp330
F56.42616617578954
aF-60.06989739381064
aF-358.8791460902513
aF4.272547158624459
aF2.7646015351590183
aF9723.651896068106
aF3.4490875858976526
aF16.94194193374086
aF1.2076184568073296
aF2.0465152757473093
aa(lp331
F56.42616617578954
aF-60.06989739381064
aF-358.8791460902513
aF4.272547158624459
aF2.7646015351590183
aF9723.651896068106
aF3.4490875858976526
aF16.94194193374086
aF1.2576184568073296
aF2.0465152757473093
aa(lp332
F56.42616617578954
aF-60.06989739381064
aF-358.8791460902513
aF4.272547158624459
aF2.7646015351590183
aF9723.651896068106
aF3.4490875858976526
aF16.94194193374086
aF1.3076184568073297
aF2.0465152757473093
aa(lp333
F56.42616617578954
aF-60.06989739381064
aF-358.8791460902513
aF4.272547158624459
aF2.7646015351590183
aF9723.651896068106
aF3.4490875858976526
aF16.94194193374086
aF1.3576184568073297
aF2.0465152757473093
aa(lp334
F56.42616617578954
aF-60.06989739381064
aF-358.8791460902513
aF4.272547158624459
aF2.7646015351590183
aF9723.651896068106
aF3.4490875858976526
aF16.94194193374086
aF1.4076184568073298
aF2.0465152757473093
aa(lp335
F56.42616617578954
aF-60.06989739381064
aF-358.8791460902513
aF4.272547158624459
aF2.7646015351590183
aF9723.651896068106
aF3.4490875858976526
aF16.94194193374086
aF1.4576184568073298
aF2.0465152757473093
aa(lp336
F56.42616617578954
aF-60.06989739381064
aF-358.8791460902513
aF4.272547158624459
aF2.7646015351590183
aF9723.651896068106
aF3.4490875858976526
aF16.94194193374086
aF1.5076184568073299
aF2.0465152757473093
aa(lp337
F56.42616617578954
aF-60.06989739381064
aF-358.8791460902513
aF4.272547158624459
aF2.7646015351590183
aF9723.651896068106
aF3.4490875858976526
aF16.94194193374086
aF1.55761845680733
aF2.0465152757473093
aa(lp338
F56.42616617578954
aF-60.06989739381064
aF-358.8791460902513
aF4.272547158624459
aF2.7646015351590183
aF9723.651896068106
aF3.4490875858976526
aF16.94194193374086
aF1.60761845680733
aF2.0465152757473093
aa(lp339
F56.42616617578954
aF-60.06989739381064
aF-358.8791460902513
aF4.272547158624459
aF2.7646015351590183
aF9723.651896068106
aF3.4490875858976526
aF16.94194193374086
aF1.65761845680733
aF2.0465152757473093
aa(lp340
F56.42616617578954
aF-60.06989739381064
aF-358.8791460902513
aF4.272547158624459
aF2.7646015351590183
aF9723.651896068106
aF3.4490875858976526
aF16.94194193374086
aF1.70761845680733
aF2.0465152757473093
aa(lp341
F56.42616617578954
aF-60.06989739381064
aF-358.8791460902513
aF4.272547158624459
aF2.7646015351590183
aF9723.651896068106
aF3.4490875858976526
aF16.94194193374086
aF1.75761845680733
aF2.0465152757473093
aa(lp342
F56.42616617578954
aF-60.06989739381064
aF-358.8791460902513
aF4.272547158624459
aF2.7646015351590183
aF9723.651896068106
aF3.4490875858976526
aF16.94194193374086
aF1.8076184568073301
aF2.0465152757473093
aa(lp343
F56.42616617578954
aF-60.06989739381064
aF-358.8791460902513
aF4.272547158624459
aF2.7646015351590183
aF9723.651896068106
aF3.4490875858976526
aF16.94194193374086
aF1.8576184568073302
aF2.0465152757473093
aa(lp344
F56.42616617578954
aF-60.06989739381064
aF-358.8791460902513
aF4.272547158624459
aF2.7646015351590183
aF9723.651896068106
aF3.4490875858976526
aF16.94194193374086
aF1.9076184568073302
aF2.0465152757473093
aa(lp345
F56.42616617578954
aF-60.06989739381064
aF-358.8791460902513
aF4.272547158624459
aF2.7646015351590183
aF9723.651896068106
aF3.4490875858976526
aF16.94194193374086
aF1.9576184568073303
aF2.0465152757473093
aa(lp346
F56.42616617578954
aF-60.06989739381064
aF-358.8791460902513
aF4.272547158624459
aF2.7646015351590183
aF9723.651896068106
aF3.4490875858976526
aF16.94194193374086
aF2.00761845680733
aF2.0465152757473093
aa(lp347
F56.42616617578954
aF-60.06989739381064
aF-358.8791460902513
aF4.272547158624459
aF2.7646015351590183
aF9723.651896068106
aF3.4490875858976526
aF16.94194193374086
aF2.05761845680733
aF2.0465152757473093
aa(lp348
F56.42616617578954
aF-60.06989739381064
aF-358.8791460902513
aF4.272547158624459
aF2.7646015351590183
aF9723.651896068106
aF3.4490875858976526
aF16.94194193374086
aF2.1076184568073297
aF2.0465152757473093
aa(lp349
F56.42616617578954
aF-60.06989739381064
aF-358.8791460902513
aF4.272547158624459
aF2.7646015351590183
aF9723.651896068106
aF3.4490875858976526
aF16.94194193374086
aF2.1576184568073296
aF2.0465152757473093
aa(lp350
F56.42616617578954
aF-60.06989739381064
aF-358.8791460902513
aF4.272547158624459
aF2.7646015351590183
aF9723.651896068106
aF3.4490875858976526
aF16.94194193374086
aF2.2076184568073294
aF2.0465152757473093
aa(lp351
F56.42616617578954
aF-60.06989739381064
aF-358.8791460902513
aF4.272547158624459
aF2.7646015351590183
aF9723.651896068106
aF3.4490875858976526
aF16.94194193374086
aF2.257618456807329
aF2.0465152757473093
aa(lp352
F56.42616617578954
aF-60.06989739381064
aF-358.8791460902513
aF4.272547158624459
aF2.7646015351590183
aF9723.651896068106
aF3.4490875858976526
aF16.94194193374086
aF2.307618456807329
aF2.0465152757473093
aa(lp353
F56.42616617578954
aF-60.06989739381064
aF-358.8791460902513
aF4.272547158624459
aF2.7646015351590183
aF9723.651896068106
aF3.4490875858976526
aF16.94194193374086
aF2.357618456807329
aF2.0465152757473093
aa(lp354
F56.42616617578954
aF-60.06989739381064
aF-358.8791460902513
aF4.272547158624459
aF2.7646015351590183
aF9723.651896068106
aF3.4490875858976526
aF16.94194193374086
aF2.4076184568073287
aF2.0465152757473093
aa(lp355
F56.42616617578954
aF-60.06989739381064
aF-358.8791460902513
aF4.272547158624459
aF2.7646015351590183
aF9723.651896068106
aF3.4490875858976526
aF16.94194193374086
aF2.4576184568073285
aF2.0465152757473093
aa(lp356
F56.42616617578954
aF-60.06989739381064
aF-358.8791460902513
aF4.272547158624459
aF2.7646015351590183
aF9723.651896068106
aF3.4490875858976526
aF16.94194193374086
aF2.5076184568073283
aF2.0465152757473093
aa(lp357
F56.42616617578954
aF-60.06989739381064
aF-358.8791460902513
aF4.272547158624459
aF2.7646015351590183
aF9723.651896068106
aF3.4490875858976526
aF16.94194193374086
aF2.557618456807328
aF2.0465152757473093
aa(lp358
F56.42616617578954
aF-60.06989739381064
aF-358.8791460902513
aF4.272547158624459
aF2.7646015351590183
aF9723.651896068106
aF3.4490875858976526
aF16.94194193374086
aF2.607618456807328
aF2.0465152757473093
aa(lp359
F56.42616617578954
aF-60.06989739381064
aF-358.8791460902513
aF4.272547158624459
aF2.7646015351590183
aF9723.651896068106
aF3.4490875858976526
aF16.94194193374086
aF2.657618456807328
aF2.0465152757473093
aa(lp360
F56.42616617578954
aF-60.06989739381064
aF-358.8791460902513
aF4.272547158624459
aF2.7646015351590183
aF9723.651896068106
aF3.4490875858976526
aF16.94194193374086
aF2.7076184568073276
aF2.0465152757473093
aa(lp361
F56.42616617578954
aF-60.06989739381064
aF-358.8791460902513
aF4.272547158624459
aF2.7646015351590183
aF9723.651896068106
aF3.4490875858976526
aF16.94194193374086
aF2.7576184568073274
aF2.0465152757473093
aa(lp362
F56.42616617578954
aF-60.06989739381064
aF-358.8791460902513
aF4.272547158624459
aF2.7646015351590183
aF9723.651896068106
aF3.4490875858976526
aF16.94194193374086
aF1.7576184568073292
aF1.5715152757473092
aa(lp363
F56.42616617578954
aF-60.06989739381064
aF-358.8791460902513
aF4.272547158624459
aF2.7646015351590183
aF9723.651896068106
aF3.4490875858976526
aF16.94194193374086
aF1.7576184568073292
aF1.5965152757473091
aa(lp364
F56.42616617578954
aF-60.06989739381064
aF-358.8791460902513
aF4.272547158624459
aF2.7646015351590183
aF9723.651896068106
aF3.4490875858976526
aF16.94194193374086
aF1.7576184568073292
aF1.621515275747309
aa(lp365
F56.42616617578954
aF-60.06989739381064
aF-358.8791460902513
aF4.272547158624459
aF2.7646015351590183
aF9723.651896068106
aF3.4490875858976526
aF16.94194193374086
aF1.7576184568073292
aF1.646515275747309
aa(lp366
F56.42616617578954
aF-60.06989739381064
aF-358.8791460902513
aF4.272547158624459
aF2.7646015351590183
aF9723.651896068106
aF3.4490875858976526
aF16.94194193374086
aF1.7576184568073292
aF1.6715152757473088
aa(lp367
F56.42616617578954
aF-60.06989739381064
aF-358.8791460902513
aF4.272547158624459
aF2.7646015351590183
aF9723.651896068106
aF3.4490875858976526
aF16.94194193374086
aF1.7576184568073292
aF1.6965152757473088
aa(lp368
F56.42616617578954
aF-60.06989739381064
aF-358.8791460902513
aF4.272547158624459
aF2.7646015351590183
aF9723.651896068106
aF3.4490875858976526
aF16.94194193374086
aF1.7576184568073292
aF1.7215152757473087
aa(lp369
F56.42616617578954
aF-60.06989739381064
aF-358.8791460902513
aF4.272547158624459
aF2.7646015351590183
aF9723.651896068106
aF3.4490875858976526
aF16.94194193374086
aF1.7576184568073292
aF1.7465152757473086
aa(lp370
F56.42616617578954
aF-60.06989739381064
aF-358.8791460902513
aF4.272547158624459
aF2.7646015351590183
aF9723.651896068106
aF3.4490875858976526
aF16.94194193374086
aF1.7576184568073292
aF1.7715152757473085
aa(lp371
F56.42616617578954
aF-60.06989739381064
aF-358.8791460902513
aF4.272547158624459
aF2.7646015351590183
aF9723.651896068106
aF3.4490875858976526
aF16.94194193374086
aF1.7576184568073292
aF1.7965152757473084
aa(lp372
F56.42616617578954
aF-60.06989739381064
aF-358.8791460902513
aF4.272547158624459
aF2.7646015351590183
aF9723.651896068106
aF3.4490875858976526
aF16.94194193374086
aF1.7576184568073292
aF1.8215152757473083
aa(lp373
F56.42616617578954
aF-60.06989739381064
aF-358.8791460902513
aF4.272547158624459
aF2.7646015351590183
aF9723.651896068106
aF3.4490875858976526
aF16.94194193374086
aF1.7576184568073292
aF1.8465152757473082
aa(lp374
F56.42616617578954
aF-60.06989739381064
aF-358.8791460902513
aF4.272547158624459
aF2.7646015351590183
aF9723.651896068106
aF3.4490875858976526
aF16.94194193374086
aF1.7576184568073292
aF1.8715152757473081
aa(lp375
F56.42616617578954
aF-60.06989739381064
aF-358.8791460902513
aF4.272547158624459
aF2.7646015351590183
aF9723.651896068106
aF3.4490875858976526
aF16.94194193374086
aF1.7576184568073292
aF1.896515275747308
aa(lp376
F56.42616617578954
aF-60.06989739381064
aF-358.8791460902513
aF4.272547158624459
aF2.7646015351590183
aF9723.651896068106
aF3.4490875858976526
aF16.94194193374086
aF1.7576184568073292
aF1.921515275747308
aa(lp377
F56.42616617578954
aF-60.06989739381064
aF-358.8791460902513
aF4.272547158624459
aF2.7646015351590183
aF9723.651896068106
aF3.4490875858976526
aF16.94194193374086
aF1.7576184568073292
aF1.9465152757473079
aa(lp378
F56.42616617578954
aF-60.06989739381064
aF-358.8791460902513
aF4.272547158624459
aF2.7646015351590183
aF9723.651896068106
aF3.4490875858976526
aF16.94194193374086
aF1.7576184568073292
aF1.9715152757473078
aa(lp379
F56.42616617578954
aF-60.06989739381064
aF-358.8791460902513
aF4.272547158624459
aF2.7646015351590183
aF9723.651896068106
aF3.4490875858976526
aF16.94194193374086
aF1.7576184568073292
aF1.9965152757473077
aa(lp380
F56.42616617578954
aF-60.06989739381064
aF-358.8791460902513
aF4.272547158624459
aF2.7646015351590183
aF9723.651896068106
aF3.4490875858976526
aF16.94194193374086
aF1.7576184568073292
aF2.0215152757473076
aa(lp381
F56.42616617578954
aF-60.06989739381064
aF-358.8791460902513
aF4.272547158624459
aF2.7646015351590183
aF9723.651896068106
aF3.4490875858976526
aF16.94194193374086
aF1.7576184568073292
aF2.0465152757473075
aa(lp382
F56.42616617578954
aF-60.06989739381064
aF-358.8791460902513
aF4.272547158624459
aF2.7646015351590183
aF9723.651896068106
aF3.4490875858976526
aF16.94194193374086
aF1.7576184568073292
aF2.0715152757473074
aa(lp383
F56.42616617578954
aF-60.06989739381064
aF-358.8791460902513
aF4.272547158624459
aF2.7646015351590183
aF9723.651896068106
aF3.4490875858976526
aF16.94194193374086
aF1.7576184568073292
aF2.0965152757473073
aa(lp384
F56.42616617578954
aF-60.06989739381064
aF-358.8791460902513
aF4.272547158624459
aF2.7646015351590183
aF9723.651896068106
aF3.4490875858976526
aF16.94194193374086
aF1.7576184568073292
aF2.1215152757473072
aa(lp385
F56.42616617578954
aF-60.06989739381064
aF-358.8791460902513
aF4.272547158624459
aF2.7646015351590183
aF9723.651896068106
aF3.4490875858976526
aF16.94194193374086
aF1.7576184568073292
aF2.146515275747307
aa(lp386
F56.42616617578954
aF-60.06989739381064
aF-358.8791460902513
aF4.272547158624459
aF2.7646015351590183
aF9723.651896068106
aF3.4490875858976526
aF16.94194193374086
aF1.7576184568073292
aF2.171515275747307
aa(lp387
F56.42616617578954
aF-60.06989739381064
aF-358.8791460902513
aF4.272547158624459
aF2.7646015351590183
aF9723.651896068106
aF3.4490875858976526
aF16.94194193374086
aF1.7576184568073292
aF2.196515275747307
aa(lp388
F56.42616617578954
aF-60.06989739381064
aF-358.8791460902513
aF4.272547158624459
aF2.7646015351590183
aF9723.651896068106
aF3.4490875858976526
aF16.94194193374086
aF1.7576184568073292
aF2.221515275747307
aa(lp389
F56.42616617578954
aF-60.06989739381064
aF-358.8791460902513
aF4.272547158624459
aF2.7646015351590183
aF9723.651896068106
aF3.4490875858976526
aF16.94194193374086
aF1.7576184568073292
aF2.246515275747307
aa(lp390
F56.42616617578954
aF-60.06989739381064
aF-358.8791460902513
aF4.272547158624459
aF2.7646015351590183
aF9723.651896068106
aF3.4490875858976526
aF16.94194193374086
aF1.7576184568073292
aF2.2715152757473067
aa(lp391
F56.42616617578954
aF-60.06989739381064
aF-358.8791460902513
aF4.272547158624459
aF2.7646015351590183
aF9723.651896068106
aF3.4490875858976526
aF16.94194193374086
aF1.7576184568073292
aF2.2965152757473066
aa(lp392
F56.42616617578954
aF-60.06989739381064
aF-358.8791460902513
aF4.272547158624459
aF2.7646015351590183
aF9723.651896068106
aF3.4490875858976526
aF16.94194193374086
aF1.7576184568073292
aF2.3215152757473065
aa(lp393
F56.42616617578954
aF-60.06989739381064
aF-358.8791460902513
aF4.272547158624459
aF2.7646015351590183
aF9723.651896068106
aF3.4490875858976526
aF16.94194193374086
aF1.7576184568073292
aF2.3465152757473065
aa(lp394
F56.42616617578954
aF-60.06989739381064
aF-358.8791460902513
aF4.272547158624459
aF2.7646015351590183
aF9723.651896068106
aF3.4490875858976526
aF16.94194193374086
aF1.7576184568073292
aF2.3715152757473064
aa(lp395
F56.42616617578954
aF-60.06989739381064
aF-358.8791460902513
aF4.272547158624459
aF2.7646015351590183
aF9723.651896068106
aF3.4490875858976526
aF16.94194193374086
aF1.7576184568073292
aF2.3965152757473063
aa(lp396
F56.42616617578954
aF-60.06989739381064
aF-358.8791460902513
aF4.272547158624459
aF2.7646015351590183
aF9723.651896068106
aF3.4490875858976526
aF16.94194193374086
aF1.7576184568073292
aF2.421515275747306
aa(lp397
F56.42616617578954
aF-60.06989739381064
aF-358.8791460902513
aF4.272547158624459
aF2.7646015351590183
aF9723.651896068106
aF3.4490875858976526
aF16.94194193374086
aF1.7576184568073292
aF2.446515275747306
aa(lp398
F56.42616617578954
aF-60.06989739381064
aF-358.8791460902513
aF4.272547158624459
aF2.7646015351590183
aF9723.651896068106
aF3.4490875858976526
aF16.94194193374086
aF1.7576184568073292
aF2.471515275747306
aa(lp399
F56.42616617578954
aF-60.06989739381064
aF-358.8791460902513
aF4.272547158624459
aF2.7646015351590183
aF9723.651896068106
aF3.4490875858976526
aF16.94194193374086
aF1.7576184568073292
aF2.496515275747306
aa(lp400
F56.42616617578954
aF-60.06989739381064
aF-358.8791460902513
aF4.272547158624459
aF2.7646015351590183
aF9723.651896068106
aF3.4490875858976526
aF16.94194193374086
aF1.7576184568073292
aF2.521515275747306
aa(lp401
F56.42616617578954
aF-60.06989739381064
aF-358.8791460902513
aF4.272547158624459
aF2.7646015351590183
aF9723.651896068106
aF3.4490875858976526
aF16.94194193374086
aF1.7576184568073292
aF2.5465152757473057
aaa(lp402
F230.2199209530507
aF229.68830331898786
aF229.0132245549296
aF227.83618395853995
aF223.64829277424892
aF219.55521015835745
aF217.1697236989478
aF215.49654182700775
aF214.34635187321192
aF213.54837603746097
aF212.97769854293188
aF212.58290156679516
aF212.28724935751825
aF204.10206805078047
aF203.75591491152446
aF203.49912485037896
aF186.56511737777973
aF183.9090537596646
aF183.56090029975644
aF183.88668203952315
aF185.2806775903951
aF188.42227653497903
aF192.52091324513896
aF199.0941201416466
aF205.79266708635598
aF208.81526835070696
aF211.96711228469445
aF214.646188484067
aF215.56326183996737
aF215.16774100213553
aF215.80409788797377
aF232.4394127673523
aF233.52460378850915
aF234.8875091616446
aF236.67565102875972
aF239.67566242149263
aF245.25690269089387
aF247.70573822889918
aF251.82529048033814
aF254.93380696733502
aa(lp403
F210.01644759510918
aF209.35985501947303
aF208.84214319657715
aF208.3924063253303
aF208.0343545318212
aF207.7066109978172
aF207.43495174275918
aF207.29174781670505
aF207.2872699502403
aF208.48742812692066
aF208.47420801033076
aF208.41023358404271
aF208.2885311157549
aF190.7137827534381
aF189.66467344663837
aF188.485128199385
aF187.32067486495842
aF186.26628655974613
aF183.86939510978274
aF183.88668203952315
aF185.732883596495
aF188.44928541985308
aF196.78090460040394
aF197.15994145050655
aF198.0976966960783
aF200.63599946854126
aF220.3262430838252
aF222.84784803588363
aF222.6924631540717
aF222.73823496329814
aF224.64942382491984
aF229.1599105987761
aF228.82175241602772
aF228.48752454909305
aF228.21315851622867
aF227.96635637426303
aF227.76094332078915
aF227.60221467762656
aF227.50813072095534
aF227.48046689081082
aa(lp404
F256.8669125782901
aF257.1137419815951
aF257.398110177854
aF257.6663751246504
aF257.87178171116784
aF258.069758506691
aF258.2429193151862
aF258.4189441424198
aF258.6034437239965
aF247.98629590246756
aF244.7200285905758
aF242.9846569945092
aF241.6504771230393
aF226.13524005721433
aF202.16094741288632
aF191.4684430049809
aF188.9402826541283
aF187.5490276483443
aF186.72096986355467
aF183.88668203952315
aF185.0609727791043
aF186.23173752299869
aF187.9134340702506
aF189.8693151483483
aF191.93325768134568
aF194.11808917474227
aF196.83114111067044
aF200.25592677382957
aF201.4054557787262
aF202.636141787564
aF203.98543633159858
aF205.30026801427576
aF206.54319730314052
aF207.71659329877883
aF208.81093213908514
aF209.85245407000647
aF210.9262922047648
aF212.0448498434129
aF213.58341146685436
aF215.27967589640747
aa(lp405
F185.5720813421701
aF185.36928151766705
aF185.1842939234826
aF185.0060046543442
aF184.8969932885216
aF184.8603578226747
aF184.8575121284242
aF184.84741677976749
aF184.86994154043063
aF184.88551266945782
aF184.8336887663553
aF184.72155494657497
aF184.5456395251317
aF184.3543255683317
aF184.2215574870827
aF184.09735416526217
aF184.01844193775514
aF183.94625584738137
aF183.89376671256196
aF183.88668203952315
aF183.88869471244382
aF183.92501108215347
aF183.96743391526192
aF184.0237475169792
aF184.06013774480556
aF184.07951200745813
aF184.12349265071902
aF184.10414343412177
aF184.07691261440385
aF184.07792677300088
aF184.07173165494828
aF184.0726897931445
aF184.0471975584614
aF184.03038413857618
aF184.01214358465077
aF184.0011906052027
aF183.9383477725874
aF183.84627923809043
aF183.80293487271453
aF183.76425130829733
aa(lp406
F181.58235379505027
aF181.651471085999
aF181.72381676310638
aF181.80458423905682
aF181.9000946775843
aF182.00179772099546
aF182.10828523412002
aF182.23348871165965
aF182.37537491927708
aF182.53268688383855
aF182.6918675574948
aF182.8508740199378
aF183.00428777070798
aF183.1596131687059
aF183.3083670015101
aF183.4480934532863
aF183.57477381521733
aF183.69210330434962
aF183.80328552349903
aF183.88668203952315
aF183.93804670576756
aF184.00495756413076
aF184.05580053234058
aF184.11511790449592
aF184.19736713201615
aF184.27151497665395
aF184.3280943239811
aF184.36616410928417
aF184.43216761599038
aF184.50001714382202
aF184.5728154615152
aF184.7036756034734
aF184.8727596314291
aF185.09013370891836
aF185.23357616179493
aF185.50864624062902
aF185.75173268062642
aF185.90068489232104
aF186.35655558713628
aF188.80226159249895
aa(lp407
F200.01988488084444
aF199.30913348691587
aF198.6201463883982
aF197.91392948234076
aF197.22361979005504
aF196.49278720229736
aF195.79191796778238
aF195.03413355941905
aF194.31018871678197
aF193.5365934227654
aF192.7271890518969
aF191.8826318939601
aF190.9922213296005
aF190.02079989311153
aF188.99459359620747
aF187.6896337907708
aF186.2870702743715
aF185.25171587076818
aF183.84983618876188
aF183.88668203952315
aF184.50641862736867
aF187.41704706156366
aF188.49328957908412
aF190.33191132715908
aF193.6036430996676
aF201.36502562148456
aF222.06507647883817
aF234.43401320939356
aF234.5764170037889
aF234.73535192769089
aF251.99002638935102
aF251.9955061852632
aF252.0324355299728
aF252.1187197769113
aF252.10392654006444
aF252.38646537984997
aF252.6947233223939
aF253.0826651951479
aF253.52859192784553
aF254.08248202615002
aa(lp408
Fnan
aFnan
aFnan
aFnan
aFnan
aFnan
aFnan
aFnan
aFnan
aFnan
aFnan
aFnan
aFnan
aFnan
aFnan
aF187.09212908944068
aF184.6078444412365
aF183.75766258221094
aF183.61528049181737
aF183.88668203952315
aF184.4351453164864
aF185.18445842404734
aF186.08720596021584
aF187.11161226201693
aF188.23520658529418
aF189.44143778280457
aF190.71771926761986
aF192.05422998530477
aF193.44314284410157
aF194.87810830650454
aF196.3538972483242
aF197.8661470203173
aF199.41117654584417
aF200.98584888237076
aF202.5874672030435
aF204.21369480791097
aF205.86249273624037
aF207.5320704860427
aF209.22084664010936
aF210.9274170803146
aa(lp409
F184.68517026922845
aF184.2684591071931
aF183.95058776480047
aF183.70596799507103
aF183.51849262779
aF183.37725698547794
aF183.27447188616262
aF183.2043401670667
aF183.16240504174897
aF183.14514928954523
aF183.1497367437308
aF183.1738388893881
aF183.21551465218317
aF183.27312468726413
aF183.34526876854125
aF183.43073907769173
aF183.5284847039439
aF183.63758421850508
aF183.7572241758474
aF183.88668203952315
aF184.02531246163923
aF184.17253613943691
aF184.3278306771444
aF184.49072302597423
aF184.66078317912348
aF184.83761887438496
aF185.02087111289754
aF185.21021034433716
aF185.40533320043926
aF185.60595968282803
aF185.81183072971618
aF186.0227061004898
aF186.23836252852928
aF186.45859210158144
aF186.68320083612826
aF186.91200741793634
aF187.14484208558025
aF187.3815456374947
aF187.62196854616943
aF187.86597016563525
aa(lp410
F183.7072889652528
aF183.6140238399591
aF183.5142847302226
aF183.432314115794
aF183.40563015622942
aF183.35159880853774
aF183.36077117324683
aF183.28843640953414
aF183.2678437257955
aF183.1627183746274
aF183.09057833056158
aF182.98946014193262
aF182.9529597632101
aF182.94861400123705
aF182.97642029355882
aF183.0183376822112
aF183.1285416137544
aF183.30392539832303
aF183.54438276270287
aF183.88668203952315
aF184.28049087290512
aF184.7417881661315
aF185.26175439335063
aF185.78285197805138
aF186.21963092767373
aF186.51095402087626
aF186.6853313856035
aF186.7365526245305
aF186.74062119913492
aF186.76981486336226
aF186.88643914959368
aF187.06430662826222
aF187.28115168988
aF187.51129372491144
aF187.73147832175192
aF187.93923651307063
aF188.14766452461382
aF188.3571819842119
aF188.54518019202712
aF188.7170441584039
aa(lp411
F183.79812977460648
aF183.77105456242168
aF183.7401317081098
aF183.70537381485988
aF183.66565342545175
aF183.62842324406614
aF183.59817382991085
aF183.56490148467125
aF183.53469206124652
aF183.5174790143193
aF183.4948703051216
aF183.47048990949253
aF183.47041911679037
aF183.47929155465326
aF183.4800557861401
aF183.5234883674698
aF183.5820026590608
aF183.6590553506913
aF183.7527781153082
aF183.88668203952315
aF184.0139908489612
aF184.16379688553457
aF184.28478924159614
aF184.40302545864918
aF184.52561195237524
aF184.6348874701871
aF184.74447318351525
aF184.82063814921486
aF184.90690163453823
aF184.97554089245938
aF185.0311293184349
aF185.0942617668315
aF185.1408755325653
aF185.2020339946276
aF185.2084789575561
aF185.2628129338105
aF185.3175675962389
aF185.38230361039058
aF185.45658291164733
aF185.52758720241746
aa.